---
triple:          'arm64-apple-darwin'
binary-path:     chess_game
relocations:
  - { offsetInCU: 0x48A7, offset: 0x48A7, size: 0x8, addend: 0x0, symName: __ZNSt3__124__put_character_sequenceB7v160006IcNS_11char_traitsIcEEEERNS_13basic_ostreamIT_T0_EES7_PKS4_m, symObjAddr: 0xD08, symBinAddr: 0x10000445C, symSize: 0x1F4 }
  - { offsetInCU: 0x61DE, offset: 0x61DE, size: 0x8, addend: 0x0, symName: __ZNSt3__1lsB7v160006INS_11char_traitsIcEEEERNS_13basic_ostreamIcT_EES6_PKc, symObjAddr: 0x190, symBinAddr: 0x1000038E4, symSize: 0x48 }
  - { offsetInCU: 0x6224, offset: 0x6224, size: 0x8, addend: 0x0, symName: __ZNSt3__118__debug_db_erase_cB7v160006INS_6vectorINS1_I6SquareNS_9allocatorIS2_EEEENS3_IS5_EEEEEEvPT_, symObjAddr: 0x3D8, symBinAddr: 0x100003B2C, symSize: 0x10 }
  - { offsetInCU: 0x6255, offset: 0x6255, size: 0x8, addend: 0x0, symName: __ZNSt3__112__to_addressB7v160006INS_6vectorI6SquareNS_9allocatorIS2_EEEEEEPT_S7_, symObjAddr: 0x51C, symBinAddr: 0x100003C70, symSize: 0x14 }
  - { offsetInCU: 0x628A, offset: 0x628A, size: 0x8, addend: 0x0, symName: __ZNSt3__118__debug_db_erase_cB7v160006INS_6vectorI6SquareNS_9allocatorIS2_EEEEEEvPT_, symObjAddr: 0x834, symBinAddr: 0x100003F88, symSize: 0x10 }
  - { offsetInCU: 0x62BB, offset: 0x62BB, size: 0x8, addend: 0x0, symName: __ZNSt3__112__to_addressB7v160006I6SquareEEPT_S3_, symObjAddr: 0x978, symBinAddr: 0x1000040CC, symSize: 0x14 }
  - { offsetInCU: 0x62F0, offset: 0x62F0, size: 0x8, addend: 0x0, symName: __ZNSt3__130__libcpp_is_constant_evaluatedB7v160006Ev, symObjAddr: 0xADC, symBinAddr: 0x100004230, symSize: 0xC }
  - { offsetInCU: 0x630D, offset: 0x630D, size: 0x8, addend: 0x0, symName: __ZNSt3__119__libcpp_deallocateB7v160006EPvmm, symObjAddr: 0xAE8, symBinAddr: 0x10000423C, symSize: 0x30 }
  - { offsetInCU: 0x6355, offset: 0x6355, size: 0x8, addend: 0x0, symName: __ZNSt3__127__do_deallocate_handle_sizeB7v160006IJEEEvPvmDpT_, symObjAddr: 0xB18, symBinAddr: 0x10000426C, symSize: 0x28 }
  - { offsetInCU: 0x6393, offset: 0x6393, size: 0x8, addend: 0x0, symName: __ZNSt3__124__libcpp_operator_deleteB7v160006IJPvEEEvDpT_, symObjAddr: 0xB40, symBinAddr: 0x100004294, symSize: 0x24 }
  - { offsetInCU: 0x63C8, offset: 0x63C8, size: 0x8, addend: 0x0, symName: __ZNSt3__116__pad_and_outputB7v160006IcNS_11char_traitsIcEEEENS_19ostreambuf_iteratorIT_T0_EES6_PKS4_S8_S8_RNS_8ios_baseES4_, symObjAddr: 0xF60, symBinAddr: 0x1000046B4, symSize: 0x248 }
  - { offsetInCU: 0x6497, offset: 0x6497, size: 0x8, addend: 0x0, symName: __ZNSt3__119__debug_db_insert_cB7v160006INS_12basic_stringIcNS_11char_traitsIcEENS_9allocatorIcEEEEEEvPT_, symObjAddr: 0x141C, symBinAddr: 0x100004B70, symSize: 0x10 }
  - { offsetInCU: 0x64C8, offset: 0x64C8, size: 0x8, addend: 0x0, symName: __ZNSt3__112__to_addressB7v160006IKcEEPT_S3_, symObjAddr: 0x14E8, symBinAddr: 0x100004C3C, symSize: 0x14 }
  - { offsetInCU: 0x6530, offset: 0x6530, size: 0x8, addend: 0x0, symName: __ZNSt3__19use_facetB7v160006INS_5ctypeIcEEEERKT_RKNS_6localeE, symObjAddr: 0x17C0, symBinAddr: 0x100004F14, symSize: 0x2C }
  - { offsetInCU: 0x69FF, offset: 0x69FF, size: 0x8, addend: 0x0, symName: __ZNSt3__118__constexpr_strlenB7v160006EPKc, symObjAddr: 0x1858, symBinAddr: 0x100004FAC, symSize: 0x24 }
  - { offsetInCU: 0x9509, offset: 0x9509, size: 0x8, addend: 0x0, symName: _main, symObjAddr: 0x0, symBinAddr: 0x100003754, symSize: 0x108 }
  - { offsetInCU: 0x9531, offset: 0x9531, size: 0x8, addend: 0x0, symName: __ZNSt3__16vectorINS0_I6SquareNS_9allocatorIS1_EEEENS2_IS4_EEEixB7v160006Em, symObjAddr: 0x108, symBinAddr: 0x10000385C, symSize: 0x2C }
  - { offsetInCU: 0x9566, offset: 0x9566, size: 0x8, addend: 0x0, symName: __ZNSt3__16vectorI6SquareNS_9allocatorIS1_EEEixB7v160006Em, symObjAddr: 0x134, symBinAddr: 0x100003888, symSize: 0x24 }
  - { offsetInCU: 0x959B, offset: 0x959B, size: 0x8, addend: 0x0, symName: __ZNSt3__16vectorINS0_I6SquareNS_9allocatorIS1_EEEENS2_IS4_EEED1B7v160006Ev, symObjAddr: 0x158, symBinAddr: 0x1000038AC, symSize: 0x2C }
  - { offsetInCU: 0x95C3, offset: 0x95C3, size: 0x8, addend: 0x0, symName: __ZNSt3__16vectorINS0_I6SquareNS_9allocatorIS1_EEEENS2_IS4_EEED2B7v160006Ev, symObjAddr: 0x1D8, symBinAddr: 0x10000392C, symSize: 0x3C }
  - { offsetInCU: 0x95EB, offset: 0x95EB, size: 0x8, addend: 0x0, symName: __ZNSt3__16vectorINS0_I6SquareNS_9allocatorIS1_EEEENS2_IS4_EEE16__destroy_vectorC1ERS6_, symObjAddr: 0x214, symBinAddr: 0x100003968, symSize: 0x34 }
  - { offsetInCU: 0x9622, offset: 0x9622, size: 0x8, addend: 0x0, symName: __ZNSt3__16vectorINS0_I6SquareNS_9allocatorIS1_EEEENS2_IS4_EEE16__destroy_vectorclB7v160006Ev, symObjAddr: 0x248, symBinAddr: 0x10000399C, symSize: 0x9C }
  - { offsetInCU: 0x9646, offset: 0x9646, size: 0x8, addend: 0x0, symName: __ZNSt3__16vectorINS0_I6SquareNS_9allocatorIS1_EEEENS2_IS4_EEE16__destroy_vectorC2ERS6_, symObjAddr: 0x2E4, symBinAddr: 0x100003A38, symSize: 0x20 }
  - { offsetInCU: 0x967D, offset: 0x967D, size: 0x8, addend: 0x0, symName: __ZNKSt3__16vectorINS0_I6SquareNS_9allocatorIS1_EEEENS2_IS4_EEE17__annotate_deleteB7v160006Ev, symObjAddr: 0x304, symBinAddr: 0x100003A58, symSize: 0xD4 }
  - { offsetInCU: 0x96A1, offset: 0x96A1, size: 0x8, addend: 0x0, symName: __ZNSt3__16vectorINS0_I6SquareNS_9allocatorIS1_EEEENS2_IS4_EEE7__clearB7v160006Ev, symObjAddr: 0x3E8, symBinAddr: 0x100003B3C, symSize: 0x28 }
  - { offsetInCU: 0x96C5, offset: 0x96C5, size: 0x8, addend: 0x0, symName: __ZNSt3__116allocator_traitsINS_9allocatorINS_6vectorI6SquareNS1_IS3_EEEEEEE10deallocateB7v160006ERS6_PS5_m, symObjAddr: 0x410, symBinAddr: 0x100003B64, symSize: 0x34 }
  - { offsetInCU: 0x9706, offset: 0x9706, size: 0x8, addend: 0x0, symName: __ZNSt3__16vectorINS0_I6SquareNS_9allocatorIS1_EEEENS2_IS4_EEE7__allocB7v160006Ev, symObjAddr: 0x444, symBinAddr: 0x100003B98, symSize: 0x28 }
  - { offsetInCU: 0x972A, offset: 0x972A, size: 0x8, addend: 0x0, symName: __ZNKSt3__16vectorINS0_I6SquareNS_9allocatorIS1_EEEENS2_IS4_EEE8capacityB7v160006Ev, symObjAddr: 0x46C, symBinAddr: 0x100003BC0, symSize: 0x40 }
  - { offsetInCU: 0x974F, offset: 0x974F, size: 0x8, addend: 0x0, symName: __ZNKSt3__16vectorINS0_I6SquareNS_9allocatorIS1_EEEENS2_IS4_EEE31__annotate_contiguous_containerB7v160006EPKvS8_S8_S8_, symObjAddr: 0x4AC, symBinAddr: 0x100003C00, symSize: 0x20 }
  - { offsetInCU: 0x97A2, offset: 0x97A2, size: 0x8, addend: 0x0, symName: __ZNKSt3__16vectorINS0_I6SquareNS_9allocatorIS1_EEEENS2_IS4_EEE4dataB7v160006Ev, symObjAddr: 0x4CC, symBinAddr: 0x100003C20, symSize: 0x28 }
  - { offsetInCU: 0x97C7, offset: 0x97C7, size: 0x8, addend: 0x0, symName: __ZNKSt3__16vectorINS0_I6SquareNS_9allocatorIS1_EEEENS2_IS4_EEE4sizeB7v160006Ev, symObjAddr: 0x4F4, symBinAddr: 0x100003C48, symSize: 0x28 }
  - { offsetInCU: 0x97EA, offset: 0x97EA, size: 0x8, addend: 0x0, symName: __ZNSt3__16vectorINS0_I6SquareNS_9allocatorIS1_EEEENS2_IS4_EEE22__base_destruct_at_endB7v160006EPS4_, symObjAddr: 0x530, symBinAddr: 0x100003C84, symSize: 0xA0 }
  - { offsetInCU: 0x982C, offset: 0x982C, size: 0x8, addend: 0x0, symName: __ZNSt3__116allocator_traitsINS_9allocatorINS_6vectorI6SquareNS1_IS3_EEEEEEE7destroyB7v160006IS5_vEEvRS6_PT_, symObjAddr: 0x5D0, symBinAddr: 0x100003D24, symSize: 0x2C }
  - { offsetInCU: 0x9868, offset: 0x9868, size: 0x8, addend: 0x0, symName: __ZNSt3__19allocatorINS_6vectorI6SquareNS0_IS2_EEEEE7destroyB7v160006EPS4_, symObjAddr: 0x5FC, symBinAddr: 0x100003D50, symSize: 0x28 }
  - { offsetInCU: 0x989A, offset: 0x989A, size: 0x8, addend: 0x0, symName: __ZNSt3__16vectorI6SquareNS_9allocatorIS1_EEED1B7v160006Ev, symObjAddr: 0x624, symBinAddr: 0x100003D78, symSize: 0x2C }
  - { offsetInCU: 0x98C2, offset: 0x98C2, size: 0x8, addend: 0x0, symName: __ZNSt3__16vectorI6SquareNS_9allocatorIS1_EEED2B7v160006Ev, symObjAddr: 0x650, symBinAddr: 0x100003DA4, symSize: 0x3C }
  - { offsetInCU: 0x98EA, offset: 0x98EA, size: 0x8, addend: 0x0, symName: __ZNSt3__16vectorI6SquareNS_9allocatorIS1_EEE16__destroy_vectorC1ERS4_, symObjAddr: 0x68C, symBinAddr: 0x100003DE0, symSize: 0x34 }
  - { offsetInCU: 0x9921, offset: 0x9921, size: 0x8, addend: 0x0, symName: __ZNSt3__16vectorI6SquareNS_9allocatorIS1_EEE16__destroy_vectorclB7v160006Ev, symObjAddr: 0x6C0, symBinAddr: 0x100003E14, symSize: 0x9C }
  - { offsetInCU: 0x9945, offset: 0x9945, size: 0x8, addend: 0x0, symName: __ZNSt3__16vectorI6SquareNS_9allocatorIS1_EEE16__destroy_vectorC2ERS4_, symObjAddr: 0x75C, symBinAddr: 0x100003EB0, symSize: 0x20 }
  - { offsetInCU: 0x997C, offset: 0x997C, size: 0x8, addend: 0x0, symName: __ZNKSt3__16vectorI6SquareNS_9allocatorIS1_EEE17__annotate_deleteB7v160006Ev, symObjAddr: 0x77C, symBinAddr: 0x100003ED0, symSize: 0xB8 }
  - { offsetInCU: 0x99A0, offset: 0x99A0, size: 0x8, addend: 0x0, symName: __ZNSt3__16vectorI6SquareNS_9allocatorIS1_EEE7__clearB7v160006Ev, symObjAddr: 0x844, symBinAddr: 0x100003F98, symSize: 0x28 }
  - { offsetInCU: 0x99C4, offset: 0x99C4, size: 0x8, addend: 0x0, symName: __ZNSt3__116allocator_traitsINS_9allocatorI6SquareEEE10deallocateB7v160006ERS3_PS2_m, symObjAddr: 0x86C, symBinAddr: 0x100003FC0, symSize: 0x34 }
  - { offsetInCU: 0x9A05, offset: 0x9A05, size: 0x8, addend: 0x0, symName: __ZNSt3__16vectorI6SquareNS_9allocatorIS1_EEE7__allocB7v160006Ev, symObjAddr: 0x8A0, symBinAddr: 0x100003FF4, symSize: 0x28 }
  - { offsetInCU: 0x9A29, offset: 0x9A29, size: 0x8, addend: 0x0, symName: __ZNKSt3__16vectorI6SquareNS_9allocatorIS1_EEE8capacityB7v160006Ev, symObjAddr: 0x8C8, symBinAddr: 0x10000401C, symSize: 0x40 }
  - { offsetInCU: 0x9A4E, offset: 0x9A4E, size: 0x8, addend: 0x0, symName: __ZNKSt3__16vectorI6SquareNS_9allocatorIS1_EEE31__annotate_contiguous_containerB7v160006EPKvS6_S6_S6_, symObjAddr: 0x908, symBinAddr: 0x10000405C, symSize: 0x20 }
  - { offsetInCU: 0x9AA1, offset: 0x9AA1, size: 0x8, addend: 0x0, symName: __ZNKSt3__16vectorI6SquareNS_9allocatorIS1_EEE4dataB7v160006Ev, symObjAddr: 0x928, symBinAddr: 0x10000407C, symSize: 0x28 }
  - { offsetInCU: 0x9AC6, offset: 0x9AC6, size: 0x8, addend: 0x0, symName: __ZNKSt3__16vectorI6SquareNS_9allocatorIS1_EEE4sizeB7v160006Ev, symObjAddr: 0x950, symBinAddr: 0x1000040A4, symSize: 0x28 }
  - { offsetInCU: 0x9AE9, offset: 0x9AE9, size: 0x8, addend: 0x0, symName: __ZNSt3__16vectorI6SquareNS_9allocatorIS1_EEE22__base_destruct_at_endB7v160006EPS1_, symObjAddr: 0x98C, symBinAddr: 0x1000040E0, symSize: 0xA0 }
  - { offsetInCU: 0x9B2B, offset: 0x9B2B, size: 0x8, addend: 0x0, symName: __ZNSt3__116allocator_traitsINS_9allocatorI6SquareEEE7destroyB7v160006IS2_vEEvRS3_PT_, symObjAddr: 0xA2C, symBinAddr: 0x100004180, symSize: 0x2C }
  - { offsetInCU: 0x9B68, offset: 0x9B68, size: 0x8, addend: 0x0, symName: __ZNSt3__19allocatorI6SquareE7destroyB7v160006EPS1_, symObjAddr: 0xA58, symBinAddr: 0x1000041AC, symSize: 0x14 }
  - { offsetInCU: 0x9B99, offset: 0x9B99, size: 0x8, addend: 0x0, symName: __ZNSt3__19allocatorI6SquareE10deallocateB7v160006EPS1_m, symObjAddr: 0xA6C, symBinAddr: 0x1000041C0, symSize: 0x70 }
  - { offsetInCU: 0x9BD9, offset: 0x9BD9, size: 0x8, addend: 0x0, symName: __ZNSt3__117__compressed_pairIP6SquareNS_9allocatorIS1_EEE6secondB7v160006Ev, symObjAddr: 0xB64, symBinAddr: 0x1000042B8, symSize: 0x24 }
  - { offsetInCU: 0x9BFE, offset: 0x9BFE, size: 0x8, addend: 0x0, symName: __ZNSt3__122__compressed_pair_elemINS_9allocatorI6SquareEELi1ELb1EE5__getB7v160006Ev, symObjAddr: 0xB88, symBinAddr: 0x1000042DC, symSize: 0x14 }
  - { offsetInCU: 0x9C21, offset: 0x9C21, size: 0x8, addend: 0x0, symName: __ZNKSt3__16vectorI6SquareNS_9allocatorIS1_EEE9__end_capB7v160006Ev, symObjAddr: 0xB9C, symBinAddr: 0x1000042F0, symSize: 0x28 }
  - { offsetInCU: 0x9C45, offset: 0x9C45, size: 0x8, addend: 0x0, symName: __ZNKSt3__117__compressed_pairIP6SquareNS_9allocatorIS1_EEE5firstB7v160006Ev, symObjAddr: 0xBC4, symBinAddr: 0x100004318, symSize: 0x24 }
  - { offsetInCU: 0x9C6A, offset: 0x9C6A, size: 0x8, addend: 0x0, symName: __ZNKSt3__122__compressed_pair_elemIP6SquareLi0ELb0EE5__getB7v160006Ev, symObjAddr: 0xBE8, symBinAddr: 0x10000433C, symSize: 0x14 }
  - { offsetInCU: 0x9C8D, offset: 0x9C8D, size: 0x8, addend: 0x0, symName: __ZNSt3__19allocatorINS_6vectorI6SquareNS0_IS2_EEEEE10deallocateB7v160006EPS4_m, symObjAddr: 0xBFC, symBinAddr: 0x100004350, symSize: 0x74 }
  - { offsetInCU: 0x9CCD, offset: 0x9CCD, size: 0x8, addend: 0x0, symName: __ZNSt3__117__compressed_pairIPNS_6vectorI6SquareNS_9allocatorIS2_EEEENS3_IS5_EEE6secondB7v160006Ev, symObjAddr: 0xC70, symBinAddr: 0x1000043C4, symSize: 0x24 }
  - { offsetInCU: 0x9CF2, offset: 0x9CF2, size: 0x8, addend: 0x0, symName: __ZNSt3__122__compressed_pair_elemINS_9allocatorINS_6vectorI6SquareNS1_IS3_EEEEEELi1ELb1EE5__getB7v160006Ev, symObjAddr: 0xC94, symBinAddr: 0x1000043E8, symSize: 0x14 }
  - { offsetInCU: 0x9D15, offset: 0x9D15, size: 0x8, addend: 0x0, symName: __ZNKSt3__16vectorINS0_I6SquareNS_9allocatorIS1_EEEENS2_IS4_EEE9__end_capB7v160006Ev, symObjAddr: 0xCA8, symBinAddr: 0x1000043FC, symSize: 0x28 }
  - { offsetInCU: 0x9D39, offset: 0x9D39, size: 0x8, addend: 0x0, symName: __ZNKSt3__117__compressed_pairIPNS_6vectorI6SquareNS_9allocatorIS2_EEEENS3_IS5_EEE5firstB7v160006Ev, symObjAddr: 0xCD0, symBinAddr: 0x100004424, symSize: 0x24 }
  - { offsetInCU: 0x9D5E, offset: 0x9D5E, size: 0x8, addend: 0x0, symName: __ZNKSt3__122__compressed_pair_elemIPNS_6vectorI6SquareNS_9allocatorIS2_EEEELi0ELb0EE5__getB7v160006Ev, symObjAddr: 0xCF4, symBinAddr: 0x100004448, symSize: 0x14 }
  - { offsetInCU: 0x9D81, offset: 0x9D81, size: 0x8, addend: 0x0, symName: __ZNSt3__111char_traitsIcE6lengthEPKc, symObjAddr: 0xEFC, symBinAddr: 0x100004650, symSize: 0x48 }
  - { offsetInCU: 0x9DC2, offset: 0x9DC2, size: 0x8, addend: 0x0, symName: __ZNKSt3__113basic_ostreamIcNS_11char_traitsIcEEE6sentrycvbB7v160006Ev, symObjAddr: 0xF44, symBinAddr: 0x100004698, symSize: 0x1C }
  - { offsetInCU: 0x9DE5, offset: 0x9DE5, size: 0x8, addend: 0x0, symName: __ZNSt3__119ostreambuf_iteratorIcNS_11char_traitsIcEEEC1B7v160006ERNS_13basic_ostreamIcS2_EE, symObjAddr: 0x11A8, symBinAddr: 0x1000048FC, symSize: 0x34 }
  - { offsetInCU: 0x9E1B, offset: 0x9E1B, size: 0x8, addend: 0x0, symName: __ZNKSt3__18ios_base5flagsB7v160006Ev, symObjAddr: 0x11DC, symBinAddr: 0x100004930, symSize: 0x18 }
  - { offsetInCU: 0x9E42, offset: 0x9E42, size: 0x8, addend: 0x0, symName: __ZNKSt3__19basic_iosIcNS_11char_traitsIcEEE4fillB7v160006Ev, symObjAddr: 0x11F4, symBinAddr: 0x100004948, symSize: 0x64 }
  - { offsetInCU: 0x9E69, offset: 0x9E69, size: 0x8, addend: 0x0, symName: __ZNKSt3__119ostreambuf_iteratorIcNS_11char_traitsIcEEE6failedB7v160006Ev, symObjAddr: 0x1258, symBinAddr: 0x1000049AC, symSize: 0x24 }
  - { offsetInCU: 0x9E8C, offset: 0x9E8C, size: 0x8, addend: 0x0, symName: __ZNSt3__19basic_iosIcNS_11char_traitsIcEEE8setstateB7v160006Ej, symObjAddr: 0x127C, symBinAddr: 0x1000049D0, symSize: 0x2C }
  - { offsetInCU: 0x9EBF, offset: 0x9EBF, size: 0x8, addend: 0x0, symName: __ZNKSt3__18ios_base5widthB7v160006Ev, symObjAddr: 0x12A8, symBinAddr: 0x1000049FC, symSize: 0x18 }
  - { offsetInCU: 0x9EE5, offset: 0x9EE5, size: 0x8, addend: 0x0, symName: __ZNSt3__115basic_streambufIcNS_11char_traitsIcEEE5sputnB7v160006EPKcl, symObjAddr: 0x12C0, symBinAddr: 0x100004A14, symSize: 0x3C }
  - { offsetInCU: 0x9F25, offset: 0x9F25, size: 0x8, addend: 0x0, symName: __ZNSt3__112basic_stringIcNS_11char_traitsIcEENS_9allocatorIcEEEC1B7v160006Emc, symObjAddr: 0x12FC, symBinAddr: 0x100004A50, symSize: 0x3C }
  - { offsetInCU: 0x9F6B, offset: 0x9F6B, size: 0x8, addend: 0x0, symName: __ZNKSt3__112basic_stringIcNS_11char_traitsIcEENS_9allocatorIcEEE4dataB7v160006Ev, symObjAddr: 0x1338, symBinAddr: 0x100004A8C, symSize: 0x28 }
  - { offsetInCU: 0x9F8F, offset: 0x9F8F, size: 0x8, addend: 0x0, symName: __ZNSt3__18ios_base5widthB7v160006El, symObjAddr: 0x1360, symBinAddr: 0x100004AB4, symSize: 0x2C }
  - { offsetInCU: 0x9FD3, offset: 0x9FD3, size: 0x8, addend: 0x0, symName: __ZNSt3__112basic_stringIcNS_11char_traitsIcEENS_9allocatorIcEEEC2B7v160006Emc, symObjAddr: 0x138C, symBinAddr: 0x100004AE0, symSize: 0x54 }
  - { offsetInCU: 0xA01E, offset: 0xA01E, size: 0x8, addend: 0x0, symName: __ZNSt3__117__compressed_pairINS_12basic_stringIcNS_11char_traitsIcEENS_9allocatorIcEEE5__repES5_EC1B7v160006INS_18__default_init_tagESA_EEOT_OT0_, symObjAddr: 0x13E0, symBinAddr: 0x100004B34, symSize: 0x3C }
  - { offsetInCU: 0xA074, offset: 0xA074, size: 0x8, addend: 0x0, symName: __ZNSt3__117__compressed_pairINS_12basic_stringIcNS_11char_traitsIcEENS_9allocatorIcEEE5__repES5_EC2B7v160006INS_18__default_init_tagESA_EEOT_OT0_, symObjAddr: 0x142C, symBinAddr: 0x100004B80, symSize: 0x3C }
  - { offsetInCU: 0xA0CA, offset: 0xA0CA, size: 0x8, addend: 0x0, symName: __ZNSt3__122__compressed_pair_elemINS_12basic_stringIcNS_11char_traitsIcEENS_9allocatorIcEEE5__repELi0ELb0EEC2B7v160006ENS_18__default_init_tagE, symObjAddr: 0x1468, symBinAddr: 0x100004BBC, symSize: 0x14 }
  - { offsetInCU: 0xA0FD, offset: 0xA0FD, size: 0x8, addend: 0x0, symName: __ZNSt3__122__compressed_pair_elemINS_9allocatorIcEELi1ELb1EEC2B7v160006ENS_18__default_init_tagE, symObjAddr: 0x147C, symBinAddr: 0x100004BD0, symSize: 0x2C }
  - { offsetInCU: 0xA130, offset: 0xA130, size: 0x8, addend: 0x0, symName: __ZNSt3__19allocatorIcEC2B7v160006Ev, symObjAddr: 0x14A8, symBinAddr: 0x100004BFC, symSize: 0x2C }
  - { offsetInCU: 0xA158, offset: 0xA158, size: 0x8, addend: 0x0, symName: __ZNSt3__116__non_trivial_ifILb1ENS_9allocatorIcEEEC2B7v160006Ev, symObjAddr: 0x14D4, symBinAddr: 0x100004C28, symSize: 0x14 }
  - { offsetInCU: 0xA180, offset: 0xA180, size: 0x8, addend: 0x0, symName: __ZNKSt3__112basic_stringIcNS_11char_traitsIcEENS_9allocatorIcEEE13__get_pointerB7v160006Ev, symObjAddr: 0x14FC, symBinAddr: 0x100004C50, symSize: 0x54 }
  - { offsetInCU: 0xA1A4, offset: 0xA1A4, size: 0x8, addend: 0x0, symName: __ZNKSt3__112basic_stringIcNS_11char_traitsIcEENS_9allocatorIcEEE9__is_longB7v160006Ev, symObjAddr: 0x1550, symBinAddr: 0x100004CA4, symSize: 0x74 }
  - { offsetInCU: 0xA1C8, offset: 0xA1C8, size: 0x8, addend: 0x0, symName: __ZNKSt3__112basic_stringIcNS_11char_traitsIcEENS_9allocatorIcEEE18__get_long_pointerB7v160006Ev, symObjAddr: 0x15C4, symBinAddr: 0x100004D18, symSize: 0x28 }
  - { offsetInCU: 0xA1EC, offset: 0xA1EC, size: 0x8, addend: 0x0, symName: __ZNKSt3__112basic_stringIcNS_11char_traitsIcEENS_9allocatorIcEEE19__get_short_pointerB7v160006Ev, symObjAddr: 0x15EC, symBinAddr: 0x100004D40, symSize: 0x28 }
  - { offsetInCU: 0xA210, offset: 0xA210, size: 0x8, addend: 0x0, symName: __ZNKSt3__117__compressed_pairINS_12basic_stringIcNS_11char_traitsIcEENS_9allocatorIcEEE5__repES5_E5firstB7v160006Ev, symObjAddr: 0x1614, symBinAddr: 0x100004D68, symSize: 0x24 }
  - { offsetInCU: 0xA235, offset: 0xA235, size: 0x8, addend: 0x0, symName: __ZNKSt3__122__compressed_pair_elemINS_12basic_stringIcNS_11char_traitsIcEENS_9allocatorIcEEE5__repELi0ELb0EE5__getB7v160006Ev, symObjAddr: 0x1638, symBinAddr: 0x100004D8C, symSize: 0x14 }
  - { offsetInCU: 0xA259, offset: 0xA259, size: 0x8, addend: 0x0, symName: __ZNSt3__114pointer_traitsIPKcE10pointer_toB7v160006ERS1_, symObjAddr: 0x164C, symBinAddr: 0x100004DA0, symSize: 0x14 }
  - { offsetInCU: 0xA27B, offset: 0xA27B, size: 0x8, addend: 0x0, symName: __ZNSt3__119ostreambuf_iteratorIcNS_11char_traitsIcEEEC2B7v160006ERNS_13basic_ostreamIcS2_EE, symObjAddr: 0x1660, symBinAddr: 0x100004DB4, symSize: 0x68 }
  - { offsetInCU: 0xA2B2, offset: 0xA2B2, size: 0x8, addend: 0x0, symName: __ZNKSt3__19basic_iosIcNS_11char_traitsIcEEE5rdbufB7v160006Ev, symObjAddr: 0x16C8, symBinAddr: 0x100004E1C, symSize: 0x24 }
  - { offsetInCU: 0xA2D9, offset: 0xA2D9, size: 0x8, addend: 0x0, symName: __ZNKSt3__18ios_base5rdbufB7v160006Ev, symObjAddr: 0x16EC, symBinAddr: 0x100004E40, symSize: 0x18 }
  - { offsetInCU: 0xA2FD, offset: 0xA2FD, size: 0x8, addend: 0x0, symName: __ZNSt3__111char_traitsIcE11eq_int_typeEii, symObjAddr: 0x1704, symBinAddr: 0x100004E58, symSize: 0x28 }
  - { offsetInCU: 0xA32E, offset: 0xA32E, size: 0x8, addend: 0x0, symName: __ZNSt3__111char_traitsIcE3eofEv, symObjAddr: 0x172C, symBinAddr: 0x100004E80, symSize: 0x8 }
  - { offsetInCU: 0xA342, offset: 0xA342, size: 0x8, addend: 0x0, symName: __ZNKSt3__19basic_iosIcNS_11char_traitsIcEEE5widenB7v160006Ec, symObjAddr: 0x1734, symBinAddr: 0x100004E88, symSize: 0x8C }
  - { offsetInCU: 0xA3AE, offset: 0xA3AE, size: 0x8, addend: 0x0, symName: __ZNKSt3__15ctypeIcE5widenB7v160006Ec, symObjAddr: 0x17EC, symBinAddr: 0x100004F40, symSize: 0x38 }
  - { offsetInCU: 0xA3E2, offset: 0xA3E2, size: 0x8, addend: 0x0, symName: __ZNSt3__18ios_base8setstateB7v160006Ej, symObjAddr: 0x1824, symBinAddr: 0x100004F78, symSize: 0x34 }
  - { offsetInCU: 0x2923, offset: 0xCDBC, size: 0x8, addend: 0x0, symName: __ZNSt3__117__libcpp_allocateB7v160006Emm, symObjAddr: 0x728, symBinAddr: 0x1000055D8, symSize: 0x28 }
  - { offsetInCU: 0x2960, offset: 0xCDF9, size: 0x8, addend: 0x0, symName: __ZNSt3__121__libcpp_operator_newB7v160006IJmEEEPvDpT_, symObjAddr: 0x764, symBinAddr: 0x100005614, symSize: 0x24 }
  - { offsetInCU: 0x299A, offset: 0xCE33, size: 0x8, addend: 0x0, symName: __ZSt28__throw_bad_array_new_lengthB7v160006v, symObjAddr: 0x6F4, symBinAddr: 0x1000055A4, symSize: 0x34 }
  - { offsetInCU: 0x49AC, offset: 0xEE45, size: 0x8, addend: 0x0, symName: __ZN5PieceC2EbNSt3__112basic_stringIcNS0_11char_traitsIcEENS0_9allocatorIcEEEEii, symObjAddr: 0x0, symBinAddr: 0x100004FD0, symSize: 0xBC }
  - { offsetInCU: 0x4A10, offset: 0xEEA9, size: 0x8, addend: 0x0, symName: __ZNSt3__112basic_stringIcNS_11char_traitsIcEENS_9allocatorIcEEEC1B7v160006Ev, symObjAddr: 0xBC, symBinAddr: 0x10000508C, symSize: 0x2C }
  - { offsetInCU: 0x4A38, offset: 0xEED1, size: 0x8, addend: 0x0, symName: __ZN5PieceD2Ev, symObjAddr: 0xF4, symBinAddr: 0x1000050B8, symSize: 0x40 }
  - { offsetInCU: 0x4A63, offset: 0xEEFC, size: 0x8, addend: 0x0, symName: __ZN5PieceD1Ev, symObjAddr: 0x134, symBinAddr: 0x1000050F8, symSize: 0x14 }
  - { offsetInCU: 0x4A8E, offset: 0xEF27, size: 0x8, addend: 0x0, symName: __ZN5Piece8getColorEv, symObjAddr: 0x148, symBinAddr: 0x10000510C, symSize: 0x1C }
  - { offsetInCU: 0x4AB5, offset: 0xEF4E, size: 0x8, addend: 0x0, symName: __ZN5Piece6getRowEv, symObjAddr: 0x164, symBinAddr: 0x100005128, symSize: 0x18 }
  - { offsetInCU: 0x4ADC, offset: 0xEF75, size: 0x8, addend: 0x0, symName: __ZN5Piece6getColEv, symObjAddr: 0x17C, symBinAddr: 0x100005140, symSize: 0x18 }
  - { offsetInCU: 0x4B03, offset: 0xEF9C, size: 0x8, addend: 0x0, symName: __ZN5Piece6setRowEi, symObjAddr: 0x194, symBinAddr: 0x100005158, symSize: 0x20 }
  - { offsetInCU: 0x4B37, offset: 0xEFD0, size: 0x8, addend: 0x0, symName: __ZN5Piece9setColumnEi, symObjAddr: 0x1B4, symBinAddr: 0x100005178, symSize: 0x20 }
  - { offsetInCU: 0x4B6C, offset: 0xF005, size: 0x8, addend: 0x0, symName: __ZN5Piece7getTypeEv, symObjAddr: 0x1D4, symBinAddr: 0x100005198, symSize: 0x3C }
  - { offsetInCU: 0x4B93, offset: 0xF02C, size: 0x8, addend: 0x0, symName: __ZNSt3__112basic_stringIcNS_11char_traitsIcEENS_9allocatorIcEEEC2B7v160006Ev, symObjAddr: 0x210, symBinAddr: 0x1000051D4, symSize: 0x44 }
  - { offsetInCU: 0x4BBB, offset: 0xF054, size: 0x8, addend: 0x0, symName: __ZNSt3__112basic_stringIcNS_11char_traitsIcEENS_9allocatorIcEEE14__default_initB7v160006Ev, symObjAddr: 0x2A0, symBinAddr: 0x100005218, symSize: 0xB0 }
  - { offsetInCU: 0x4C0C, offset: 0xF0A5, size: 0x8, addend: 0x0, symName: __ZNSt3__117__compressed_pairINS_12basic_stringIcNS_11char_traitsIcEENS_9allocatorIcEEE5__repES5_E5firstB7v160006Ev, symObjAddr: 0x40C, symBinAddr: 0x1000052C8, symSize: 0x24 }
  - { offsetInCU: 0x4C30, offset: 0xF0C9, size: 0x8, addend: 0x0, symName: __ZNSt3__112basic_stringIcNS_11char_traitsIcEENS_9allocatorIcEEE11__recommendB7v160006Em, symObjAddr: 0x43C, symBinAddr: 0x1000052EC, symSize: 0x9C }
  - { offsetInCU: 0x4C62, offset: 0xF0FB, size: 0x8, addend: 0x0, symName: __ZNSt3__116allocator_traitsINS_9allocatorIcEEE8allocateB7v160006ERS2_m, symObjAddr: 0x4D8, symBinAddr: 0x100005388, symSize: 0x2C }
  - { offsetInCU: 0x4C94, offset: 0xF12D, size: 0x8, addend: 0x0, symName: __ZNSt3__112basic_stringIcNS_11char_traitsIcEENS_9allocatorIcEEE7__allocB7v160006Ev, symObjAddr: 0x504, symBinAddr: 0x1000053B4, symSize: 0x24 }
  - { offsetInCU: 0x4CB8, offset: 0xF151, size: 0x8, addend: 0x0, symName: __ZNSt3__112basic_stringIcNS_11char_traitsIcEENS_9allocatorIcEEE16__begin_lifetimeB7v160006EPcm, symObjAddr: 0x528, symBinAddr: 0x1000053D8, symSize: 0x14 }
  - { offsetInCU: 0x4CEB, offset: 0xF184, size: 0x8, addend: 0x0, symName: __ZNSt3__112basic_stringIcNS_11char_traitsIcEENS_9allocatorIcEEE18__set_long_pointerB7v160006EPc, symObjAddr: 0x53C, symBinAddr: 0x1000053EC, symSize: 0x38 }
  - { offsetInCU: 0x4D1E, offset: 0xF1B7, size: 0x8, addend: 0x0, symName: __ZNSt3__112basic_stringIcNS_11char_traitsIcEENS_9allocatorIcEEE14__set_long_capB7v160006Em, symObjAddr: 0x574, symBinAddr: 0x100005424, symSize: 0x70 }
  - { offsetInCU: 0x4D51, offset: 0xF1EA, size: 0x8, addend: 0x0, symName: __ZNSt3__112basic_stringIcNS_11char_traitsIcEENS_9allocatorIcEEE15__set_long_sizeB7v160006Em, symObjAddr: 0x5E4, symBinAddr: 0x100005494, symSize: 0x38 }
  - { offsetInCU: 0x4D84, offset: 0xF21D, size: 0x8, addend: 0x0, symName: __ZNSt3__122__compressed_pair_elemINS_12basic_stringIcNS_11char_traitsIcEENS_9allocatorIcEEE5__repELi0ELb0EE5__getB7v160006Ev, symObjAddr: 0x61C, symBinAddr: 0x1000054CC, symSize: 0x14 }
  - { offsetInCU: 0x4DA8, offset: 0xF241, size: 0x8, addend: 0x0, symName: __ZNSt3__112basic_stringIcNS_11char_traitsIcEENS_9allocatorIcEEE10__align_itB7v160006ILm16EEEmm, symObjAddr: 0x630, symBinAddr: 0x1000054E0, symSize: 0x1C }
  - { offsetInCU: 0x4DD6, offset: 0xF26F, size: 0x8, addend: 0x0, symName: __ZNSt3__19allocatorIcE8allocateB7v160006Em, symObjAddr: 0x64C, symBinAddr: 0x1000054FC, symSize: 0x84 }
  - { offsetInCU: 0x4E12, offset: 0xF2AB, size: 0x8, addend: 0x0, symName: __ZNSt3__116allocator_traitsINS_9allocatorIcEEE8max_sizeB7v160006IS2_vEEmRKS2_, symObjAddr: 0x6D0, symBinAddr: 0x100005580, symSize: 0x24 }
  - { offsetInCU: 0x4E3F, offset: 0xF2D8, size: 0x8, addend: 0x0, symName: __ZNKSt3__19allocatorIcE8max_sizeB7v160006Ev, symObjAddr: 0x750, symBinAddr: 0x100005600, symSize: 0x14 }
  - { offsetInCU: 0x4E63, offset: 0xF2FC, size: 0x8, addend: 0x0, symName: __ZNSt3__117__compressed_pairINS_12basic_stringIcNS_11char_traitsIcEENS_9allocatorIcEEE5__repES5_E6secondB7v160006Ev, symObjAddr: 0x788, symBinAddr: 0x100005638, symSize: 0x24 }
  - { offsetInCU: 0x4E87, offset: 0xF320, size: 0x8, addend: 0x0, symName: __ZNSt3__122__compressed_pair_elemINS_9allocatorIcEELi1ELb1EE5__getB7v160006Ev, symObjAddr: 0x7AC, symBinAddr: 0x10000565C, symSize: 0x14 }
  - { offsetInCU: 0x51EF, offset: 0x14547, size: 0x8, addend: 0x0, symName: __ZNSt3__1eqB7v160006INS_9allocatorIcEEEEbRKNS_12basic_stringIcNS_11char_traitsIcEET_EES9_, symObjAddr: 0x2284, symBinAddr: 0x100007840, symSize: 0x148 }
  - { offsetInCU: 0x5262, offset: 0x145BA, size: 0x8, addend: 0x0, symName: __ZNSt3__1eqB7v160006IcNS_11char_traitsIcEENS_9allocatorIcEEEEbRKNS_12basic_stringIT_T0_T1_EEPKS6_, symObjAddr: 0x39CC, symBinAddr: 0x100008F5C, symSize: 0xC0 }
  - { offsetInCU: 0x52C9, offset: 0x14621, size: 0x8, addend: 0x0, symName: __ZNSt3__122__make_exception_guardB7v160006INS_6vectorI6SquareNS_9allocatorIS2_EEE16__destroy_vectorEEENS_28__exception_guard_exceptionsIT_EES8_, symObjAddr: 0x3D78, symBinAddr: 0x100009308, symSize: 0x40 }
  - { offsetInCU: 0x52FE, offset: 0x14656, size: 0x8, addend: 0x0, symName: __ZNSt3__119__debug_db_insert_cB7v160006INS_6vectorI6SquareNS_9allocatorIS2_EEEEEEvPT_, symObjAddr: 0x3DEC, symBinAddr: 0x100009348, symSize: 0x10 }
  - { offsetInCU: 0x532F, offset: 0x14687, size: 0x8, addend: 0x0, symName: __ZNSt3__119__allocate_at_leastB7v160006INS_9allocatorI6SquareEEEENS_19__allocation_resultINS_16allocator_traitsIT_E7pointerEEERS6_m, symObjAddr: 0x4190, symBinAddr: 0x1000096CC, symSize: 0x40 }
  - { offsetInCU: 0x5372, offset: 0x146CA, size: 0x8, addend: 0x0, symName: __ZNSt3__13minB7v160006ImEERKT_S3_S3_, symObjAddr: 0x42CC, symBinAddr: 0x1000097E0, symSize: 0x2C }
  - { offsetInCU: 0x55C0, offset: 0x14918, size: 0x8, addend: 0x0, symName: __ZNSt3__13minB7v160006ImNS_6__lessImmEEEERKT_S5_S5_T0_, symObjAddr: 0x4358, symBinAddr: 0x10000986C, symSize: 0x54 }
  - { offsetInCU: 0x5655, offset: 0x149AD, size: 0x8, addend: 0x0, symName: __ZNSt3__120__throw_length_errorB7v160006EPKc, symObjAddr: 0x4434, symBinAddr: 0x100009948, symSize: 0x64 }
  - { offsetInCU: 0x567E, offset: 0x149D6, size: 0x8, addend: 0x0, symName: __ZNSt3__122__make_exception_guardB7v160006INS_6vectorINS1_I6SquareNS_9allocatorIS2_EEEENS3_IS5_EEE16__destroy_vectorEEENS_28__exception_guard_exceptionsIT_EESA_, symObjAddr: 0x4E18, symBinAddr: 0x100009D7C, symSize: 0x40 }
  - { offsetInCU: 0x56B3, offset: 0x14A0B, size: 0x8, addend: 0x0, symName: __ZNSt3__119__debug_db_insert_cB7v160006INS_6vectorINS1_I6SquareNS_9allocatorIS2_EEEENS3_IS5_EEEEEEvPT_, symObjAddr: 0x4E8C, symBinAddr: 0x100009DBC, symSize: 0x10 }
  - { offsetInCU: 0x56E4, offset: 0x14A3C, size: 0x8, addend: 0x0, symName: __ZNSt3__119__allocate_at_leastB7v160006INS_9allocatorINS_6vectorI6SquareNS1_IS3_EEEEEEEENS_19__allocation_resultINS_16allocator_traitsIT_E7pointerEEERS9_m, symObjAddr: 0x5240, symBinAddr: 0x10000A150, symSize: 0x40 }
  - { offsetInCU: 0x5727, offset: 0x14A7F, size: 0x8, addend: 0x0, symName: __ZNSt3__130__uninitialized_allocator_copyB7v160006INS_9allocatorI6SquareEEPS2_S4_S4_EET2_RT_T0_T1_S5_, symObjAddr: 0x59CC, symBinAddr: 0x10000A780, symSize: 0xFC }
  - { offsetInCU: 0x57C5, offset: 0x14B1D, size: 0x8, addend: 0x0, symName: __ZNSt3__122__make_exception_guardB7v160006INS_29_AllocatorDestroyRangeReverseINS_9allocatorI6SquareEEPS3_EEEENS_28__exception_guard_exceptionsIT_EES8_, symObjAddr: 0x5AC8, symBinAddr: 0x10000A87C, symSize: 0x4C }
  - { offsetInCU: 0x57FB, offset: 0x14B53, size: 0x8, addend: 0x0, symName: __ZNSt3__119__allocator_destroyB7v160006INS_9allocatorI6SquareEENS_16reverse_iteratorIPS2_EES6_EEvRT_T0_T1_, symObjAddr: 0x5D48, symBinAddr: 0x10000AAFC, symSize: 0x70 }
  - { offsetInCU: 0x585E, offset: 0x14BB6, size: 0x8, addend: 0x0, symName: __ZNSt3__1neB7v160006IP6SquareS2_EEbRKNS_16reverse_iteratorIT_EERKNS3_IT0_EE, symObjAddr: 0x5DEC, symBinAddr: 0x10000ABA0, symSize: 0x48 }
  - { offsetInCU: 0x58AA, offset: 0x14C02, size: 0x8, addend: 0x0, symName: __ZNSt3__112__to_addressB7v160006INS_16reverse_iteratorIP6SquareEEvEENS_5decayIDTclsr19__to_address_helperIT_EE6__callclsr3stdE7declvalIRKS6_EEEEE4typeES8_, symObjAddr: 0x5E34, symBinAddr: 0x10000ABE8, symSize: 0x24 }
  - { offsetInCU: 0x590A, offset: 0x14C62, size: 0x8, addend: 0x0, symName: __ZNSt3__118__constexpr_memcmpB7v160006IcEEiPKT_S3_m, symObjAddr: 0x6804, symBinAddr: 0x10000AEFC, symSize: 0x34 }
  - { offsetInCU: 0x595B, offset: 0x14CB3, size: 0x8, addend: 0x0, symName: __ZNSt3__130__uninitialized_allocator_copyB7v160006INS_9allocatorINS_6vectorI6SquareNS1_IS3_EEEEEEPS5_S7_S7_EET2_RT_T0_T1_S8_, symObjAddr: 0x6EA8, symBinAddr: 0x10000B184, symSize: 0xFC }
  - { offsetInCU: 0x59F9, offset: 0x14D51, size: 0x8, addend: 0x0, symName: __ZNSt3__122__make_exception_guardB7v160006INS_29_AllocatorDestroyRangeReverseINS_9allocatorINS_6vectorI6SquareNS2_IS4_EEEEEEPS6_EEEENS_28__exception_guard_exceptionsIT_EESB_, symObjAddr: 0x6FA4, symBinAddr: 0x10000B280, symSize: 0x4C }
  - { offsetInCU: 0x5A2F, offset: 0x14D87, size: 0x8, addend: 0x0, symName: __ZNSt3__119__allocator_destroyB7v160006INS_9allocatorINS_6vectorI6SquareNS1_IS3_EEEEEENS_16reverse_iteratorIPS5_EES9_EEvRT_T0_T1_, symObjAddr: 0x722C, symBinAddr: 0x10000B508, symSize: 0x70 }
  - { offsetInCU: 0x5A92, offset: 0x14DEA, size: 0x8, addend: 0x0, symName: __ZNSt3__1neB7v160006IPNS_6vectorI6SquareNS_9allocatorIS2_EEEES6_EEbRKNS_16reverse_iteratorIT_EERKNS7_IT0_EE, symObjAddr: 0x72D0, symBinAddr: 0x10000B5AC, symSize: 0x48 }
  - { offsetInCU: 0x5ADE, offset: 0x14E36, size: 0x8, addend: 0x0, symName: __ZNSt3__112__to_addressB7v160006INS_16reverse_iteratorIPNS_6vectorI6SquareNS_9allocatorIS3_EEEEEEvEENS_5decayIDTclsr19__to_address_helperIT_EE6__callclsr3stdE7declvalIRKSA_EEEEE4typeESC_, symObjAddr: 0x7318, symBinAddr: 0x10000B5F4, symSize: 0x24 }
  - { offsetInCU: 0x80C0, offset: 0x17418, size: 0x8, addend: 0x0, symName: __ZN5BoardC2Ev, symObjAddr: 0x0, symBinAddr: 0x100005670, symSize: 0x15C }
  - { offsetInCU: 0x8112, offset: 0x1746A, size: 0x8, addend: 0x0, symName: __ZNSt3__16vectorI6SquareNS_9allocatorIS1_EEEC1Em, symObjAddr: 0x15C, symBinAddr: 0x1000057CC, symSize: 0x34 }
  - { offsetInCU: 0x814C, offset: 0x174A4, size: 0x8, addend: 0x0, symName: __ZNSt3__16vectorINS0_I6SquareNS_9allocatorIS1_EEEENS2_IS4_EEEC1EmRKS4_, symObjAddr: 0x190, symBinAddr: 0x100005800, symSize: 0x3C }
  - { offsetInCU: 0x8195, offset: 0x174ED, size: 0x8, addend: 0x0, symName: __ZN5BoardC1Ev, symObjAddr: 0x280, symBinAddr: 0x10000583C, symSize: 0x2C }
  - { offsetInCU: 0x81BF, offset: 0x17517, size: 0x8, addend: 0x0, symName: __ZN5Board8setBoardEv, symObjAddr: 0x2AC, symBinAddr: 0x100005868, symSize: 0x1D4C }
  - { offsetInCU: 0x83CA, offset: 0x17722, size: 0x8, addend: 0x0, symName: __ZNSt3__112basic_stringIcNS_11char_traitsIcEENS_9allocatorIcEEEC1B7v160006IDnEEPKc, symObjAddr: 0x1FF8, symBinAddr: 0x1000075B4, symSize: 0x34 }
  - { offsetInCU: 0x8406, offset: 0x1775E, size: 0x8, addend: 0x0, symName: __ZN5Board8inBoundsEii, symObjAddr: 0x202C, symBinAddr: 0x1000075E8, symSize: 0x88 }
  - { offsetInCU: 0x8449, offset: 0x177A1, size: 0x8, addend: 0x0, symName: __ZN5Board11lookForKingENSt3__112basic_stringIcNS0_11char_traitsIcEENS0_9allocatorIcEEEEii, symObjAddr: 0x20B4, symBinAddr: 0x100007670, symSize: 0x1D0 }
  - { offsetInCU: 0x8507, offset: 0x1785F, size: 0x8, addend: 0x0, symName: __ZN5Board13lookForBishopENSt3__112basic_stringIcNS0_11char_traitsIcEENS0_9allocatorIcEEEEii, symObjAddr: 0x23CC, symBinAddr: 0x100007988, symSize: 0x440 }
  - { offsetInCU: 0x8567, offset: 0x178BF, size: 0x8, addend: 0x0, symName: __ZN5Board11lookForRookENSt3__112basic_stringIcNS0_11char_traitsIcEENS0_9allocatorIcEEEEii, symObjAddr: 0x280C, symBinAddr: 0x100007DC8, symSize: 0x3A0 }
  - { offsetInCU: 0x85C7, offset: 0x1791F, size: 0x8, addend: 0x0, symName: __ZN5Board12lookForQueenENSt3__112basic_stringIcNS0_11char_traitsIcEENS0_9allocatorIcEEEEii, symObjAddr: 0x2BAC, symBinAddr: 0x100008168, symSize: 0x18C }
  - { offsetInCU: 0x8619, offset: 0x17971, size: 0x8, addend: 0x0, symName: __ZN5Board13lookForKnightENSt3__112basic_stringIcNS0_11char_traitsIcEENS0_9allocatorIcEEEEii, symObjAddr: 0x2D38, symBinAddr: 0x1000082F4, symSize: 0x1D0 }
  - { offsetInCU: 0x86D7, offset: 0x17A2F, size: 0x8, addend: 0x0, symName: __ZN5Board11lookForPawnEiib, symObjAddr: 0x2F08, symBinAddr: 0x1000084C4, symSize: 0x498 }
  - { offsetInCU: 0x873C, offset: 0x17A94, size: 0x8, addend: 0x0, symName: __ZNSt3__112basic_stringIcNS_11char_traitsIcEENS_9allocatorIcEEEaSB7v160006EPKc, symObjAddr: 0x33CC, symBinAddr: 0x10000895C, symSize: 0x2C }
  - { offsetInCU: 0x876F, offset: 0x17AC7, size: 0x8, addend: 0x0, symName: __ZN5Board10checkBoardEv, symObjAddr: 0x33F8, symBinAddr: 0x100008988, symSize: 0x5D4 }
  - { offsetInCU: 0x87C1, offset: 0x17B19, size: 0x8, addend: 0x0, symName: __ZN5Board8getBoardEv, symObjAddr: 0x3A8C, symBinAddr: 0x10000901C, symSize: 0x38 }
  - { offsetInCU: 0x87E9, offset: 0x17B41, size: 0x8, addend: 0x0, symName: __ZNSt3__16vectorINS0_I6SquareNS_9allocatorIS1_EEEENS2_IS4_EEEC1ERKS6_, symObjAddr: 0x3AC4, symBinAddr: 0x100009054, symSize: 0x34 }
  - { offsetInCU: 0x8823, offset: 0x17B7B, size: 0x8, addend: 0x0, symName: __ZN5Board8makeMoveER5Pieceii, symObjAddr: 0x3AF8, symBinAddr: 0x100009088, symSize: 0xDC }
  - { offsetInCU: 0x8878, offset: 0x17BD0, size: 0x8, addend: 0x0, symName: __ZN5Board16isEnpassantValidEv, symObjAddr: 0x3BD4, symBinAddr: 0x100009164, symSize: 0x1C }
  - { offsetInCU: 0x88A0, offset: 0x17BF8, size: 0x8, addend: 0x0, symName: __ZN5Board12setEnpassantEb, symObjAddr: 0x3BF0, symBinAddr: 0x100009180, symSize: 0x2C }
  - { offsetInCU: 0x88D7, offset: 0x17C2F, size: 0x8, addend: 0x0, symName: __ZN5Board15setEnpassantColEi, symObjAddr: 0x3C1C, symBinAddr: 0x1000091AC, symSize: 0x20 }
  - { offsetInCU: 0x890E, offset: 0x17C66, size: 0x8, addend: 0x0, symName: __ZN5Board15getEnpassantColEv, symObjAddr: 0x3C3C, symBinAddr: 0x1000091CC, symSize: 0x18 }
  - { offsetInCU: 0x8936, offset: 0x17C8E, size: 0x8, addend: 0x0, symName: __ZNSt3__16vectorI6SquareNS_9allocatorIS1_EEEC2Em, symObjAddr: 0x3C54, symBinAddr: 0x1000091E4, symSize: 0xE8 }
  - { offsetInCU: 0x898F, offset: 0x17CE7, size: 0x8, addend: 0x0, symName: __ZNSt3__117__compressed_pairIP6SquareNS_9allocatorIS1_EEEC1B7v160006IDnNS_18__default_init_tagEEEOT_OT0_, symObjAddr: 0x3D3C, symBinAddr: 0x1000092CC, symSize: 0x3C }
  - { offsetInCU: 0x89E5, offset: 0x17D3D, size: 0x8, addend: 0x0, symName: __ZNSt3__16vectorI6SquareNS_9allocatorIS1_EEE11__vallocateB7v160006Em, symObjAddr: 0x3DFC, symBinAddr: 0x100009358, symSize: 0xAC }
  - { offsetInCU: 0x8A27, offset: 0x17D7F, size: 0x8, addend: 0x0, symName: __ZNSt3__16vectorI6SquareNS_9allocatorIS1_EEE18__construct_at_endEm, symObjAddr: 0x3EA8, symBinAddr: 0x100009404, symSize: 0xD0 }
  - { offsetInCU: 0x8A99, offset: 0x17DF1, size: 0x8, addend: 0x0, symName: __ZNSt3__128__exception_guard_exceptionsINS_6vectorI6SquareNS_9allocatorIS2_EEE16__destroy_vectorEE10__completeB7v160006Ev, symObjAddr: 0x3F78, symBinAddr: 0x1000094D4, symSize: 0x1C }
  - { offsetInCU: 0x8ABD, offset: 0x17E15, size: 0x8, addend: 0x0, symName: __ZNSt3__128__exception_guard_exceptionsINS_6vectorI6SquareNS_9allocatorIS2_EEE16__destroy_vectorEED1B7v160006Ev, symObjAddr: 0x3F94, symBinAddr: 0x1000094F0, symSize: 0x2C }
  - { offsetInCU: 0x8AE5, offset: 0x17E3D, size: 0x8, addend: 0x0, symName: __ZNSt3__117__compressed_pairIP6SquareNS_9allocatorIS1_EEEC2B7v160006IDnNS_18__default_init_tagEEEOT_OT0_, symObjAddr: 0x3FC0, symBinAddr: 0x10000951C, symSize: 0x40 }
  - { offsetInCU: 0x8B3C, offset: 0x17E94, size: 0x8, addend: 0x0, symName: __ZNSt3__122__compressed_pair_elemIP6SquareLi0ELb0EEC2B7v160006IDnvEEOT_, symObjAddr: 0x4000, symBinAddr: 0x10000955C, symSize: 0x1C }
  - { offsetInCU: 0x8B7B, offset: 0x17ED3, size: 0x8, addend: 0x0, symName: __ZNSt3__122__compressed_pair_elemINS_9allocatorI6SquareEELi1ELb1EEC2B7v160006ENS_18__default_init_tagE, symObjAddr: 0x401C, symBinAddr: 0x100009578, symSize: 0x2C }
  - { offsetInCU: 0x8BAE, offset: 0x17F06, size: 0x8, addend: 0x0, symName: __ZNSt3__19allocatorI6SquareEC2B7v160006Ev, symObjAddr: 0x4048, symBinAddr: 0x1000095A4, symSize: 0x2C }
  - { offsetInCU: 0x8BD7, offset: 0x17F2F, size: 0x8, addend: 0x0, symName: __ZNSt3__116__non_trivial_ifILb1ENS_9allocatorI6SquareEEEC2B7v160006Ev, symObjAddr: 0x4074, symBinAddr: 0x1000095D0, symSize: 0x14 }
  - { offsetInCU: 0x8BFE, offset: 0x17F56, size: 0x8, addend: 0x0, symName: __ZNSt3__128__exception_guard_exceptionsINS_6vectorI6SquareNS_9allocatorIS2_EEE16__destroy_vectorEEC1B7v160006ES6_, symObjAddr: 0x4088, symBinAddr: 0x1000095E4, symSize: 0x34 }
  - { offsetInCU: 0x8C35, offset: 0x17F8D, size: 0x8, addend: 0x0, symName: __ZNSt3__128__exception_guard_exceptionsINS_6vectorI6SquareNS_9allocatorIS2_EEE16__destroy_vectorEEC2B7v160006ES6_, symObjAddr: 0x40BC, symBinAddr: 0x100009618, symSize: 0x24 }
  - { offsetInCU: 0x8C6A, offset: 0x17FC2, size: 0x8, addend: 0x0, symName: __ZNKSt3__16vectorI6SquareNS_9allocatorIS1_EEE8max_sizeEv, symObjAddr: 0x4100, symBinAddr: 0x10000963C, symSize: 0x74 }
  - { offsetInCU: 0x8C91, offset: 0x17FE9, size: 0x8, addend: 0x0, symName: __ZNKSt3__16vectorI6SquareNS_9allocatorIS1_EEE20__throw_length_errorB7v160006Ev, symObjAddr: 0x4174, symBinAddr: 0x1000096B0, symSize: 0x1C }
  - { offsetInCU: 0x8CB5, offset: 0x1800D, size: 0x8, addend: 0x0, symName: __ZNSt3__16vectorI6SquareNS_9allocatorIS1_EEE9__end_capB7v160006Ev, symObjAddr: 0x41F8, symBinAddr: 0x10000970C, symSize: 0x28 }
  - { offsetInCU: 0x8CD9, offset: 0x18031, size: 0x8, addend: 0x0, symName: __ZNKSt3__16vectorI6SquareNS_9allocatorIS1_EEE14__annotate_newB7v160006Em, symObjAddr: 0x4220, symBinAddr: 0x100009734, symSize: 0xAC }
  - { offsetInCU: 0x8D17, offset: 0x1806F, size: 0x8, addend: 0x0, symName: __ZNSt3__116allocator_traitsINS_9allocatorI6SquareEEE8max_sizeB7v160006IS3_vEEmRKS3_, symObjAddr: 0x42F8, symBinAddr: 0x10000980C, symSize: 0x24 }
  - { offsetInCU: 0x8D43, offset: 0x1809B, size: 0x8, addend: 0x0, symName: __ZNKSt3__16vectorI6SquareNS_9allocatorIS1_EEE7__allocB7v160006Ev, symObjAddr: 0x431C, symBinAddr: 0x100009830, symSize: 0x28 }
  - { offsetInCU: 0x8D68, offset: 0x180C0, size: 0x8, addend: 0x0, symName: __ZNSt3__114numeric_limitsIlE3maxB7v160006Ev, symObjAddr: 0x4344, symBinAddr: 0x100009858, symSize: 0x14 }
  - { offsetInCU: 0x8D8F, offset: 0x180E7, size: 0x8, addend: 0x0, symName: __ZNKSt3__16__lessImmEclB7v160006ERKmS3_, symObjAddr: 0x43AC, symBinAddr: 0x1000098C0, symSize: 0x34 }
  - { offsetInCU: 0x8DCF, offset: 0x18127, size: 0x8, addend: 0x0, symName: __ZNKSt3__19allocatorI6SquareE8max_sizeB7v160006Ev, symObjAddr: 0x43E0, symBinAddr: 0x1000098F4, symSize: 0x14 }
  - { offsetInCU: 0x8DF3, offset: 0x1814B, size: 0x8, addend: 0x0, symName: __ZNKSt3__117__compressed_pairIP6SquareNS_9allocatorIS1_EEE6secondB7v160006Ev, symObjAddr: 0x43F4, symBinAddr: 0x100009908, symSize: 0x24 }
  - { offsetInCU: 0x8E17, offset: 0x1816F, size: 0x8, addend: 0x0, symName: __ZNKSt3__122__compressed_pair_elemINS_9allocatorI6SquareEELi1ELb1EE5__getB7v160006Ev, symObjAddr: 0x4418, symBinAddr: 0x10000992C, symSize: 0x14 }
  - { offsetInCU: 0x8E3C, offset: 0x18194, size: 0x8, addend: 0x0, symName: __ZNSt3__123__libcpp_numeric_limitsIlLb1EE3maxB7v160006Ev, symObjAddr: 0x442C, symBinAddr: 0x100009940, symSize: 0x8 }
  - { offsetInCU: 0x8E4F, offset: 0x181A7, size: 0x8, addend: 0x0, symName: __ZNSt12length_errorC1B7v160006EPKc, symObjAddr: 0x4498, symBinAddr: 0x1000099AC, symSize: 0x34 }
  - { offsetInCU: 0x8E85, offset: 0x181DD, size: 0x8, addend: 0x0, symName: __ZNSt12length_errorC2B7v160006EPKc, symObjAddr: 0x44CC, symBinAddr: 0x1000099E0, symSize: 0x4C }
  - { offsetInCU: 0x8EBB, offset: 0x18213, size: 0x8, addend: 0x0, symName: __ZNSt3__19allocatorI6SquareE8allocateB7v160006Em, symObjAddr: 0x4518, symBinAddr: 0x100009A2C, symSize: 0x84 }
  - { offsetInCU: 0x8EED, offset: 0x18245, size: 0x8, addend: 0x0, symName: __ZNSt3__117__compressed_pairIP6SquareNS_9allocatorIS1_EEE5firstB7v160006Ev, symObjAddr: 0x4660, symBinAddr: 0x100009AB0, symSize: 0x24 }
  - { offsetInCU: 0x8F11, offset: 0x18269, size: 0x8, addend: 0x0, symName: __ZNSt3__122__compressed_pair_elemIP6SquareLi0ELb0EE5__getB7v160006Ev, symObjAddr: 0x4684, symBinAddr: 0x100009AD4, symSize: 0x14 }
  - { offsetInCU: 0x8F4E, offset: 0x182A6, size: 0x8, addend: 0x0, symName: __ZNSt3__16vectorI6SquareNS_9allocatorIS1_EEE21_ConstructTransactionC1B7v160006ERS4_m, symObjAddr: 0x4794, symBinAddr: 0x100009AE8, symSize: 0x3C }
  - { offsetInCU: 0x8F95, offset: 0x182ED, size: 0x8, addend: 0x0, symName: __ZNSt3__116allocator_traitsINS_9allocatorI6SquareEEE9constructB7v160006IS2_JEvEEvRS3_PT_DpOT0_, symObjAddr: 0x47D0, symBinAddr: 0x100009B24, symSize: 0x2C }
  - { offsetInCU: 0x8FD5, offset: 0x1832D, size: 0x8, addend: 0x0, symName: __ZNSt3__16vectorI6SquareNS_9allocatorIS1_EEE21_ConstructTransactionD1B7v160006Ev, symObjAddr: 0x47FC, symBinAddr: 0x100009B50, symSize: 0x2C }
  - { offsetInCU: 0x8FFE, offset: 0x18356, size: 0x8, addend: 0x0, symName: __ZNSt3__16vectorI6SquareNS_9allocatorIS1_EEE21_ConstructTransactionC2B7v160006ERS4_m, symObjAddr: 0x4828, symBinAddr: 0x100009B7C, symSize: 0x44 }
  - { offsetInCU: 0x9043, offset: 0x1839B, size: 0x8, addend: 0x0, symName: __ZNSt3__19allocatorI6SquareE9constructB7v160006IS1_JEEEvPT_DpOT0_, symObjAddr: 0x486C, symBinAddr: 0x100009BC0, symSize: 0x28 }
  - { offsetInCU: 0x9084, offset: 0x183DC, size: 0x8, addend: 0x0, symName: __ZNSt3__16vectorI6SquareNS_9allocatorIS1_EEE21_ConstructTransactionD2B7v160006Ev, symObjAddr: 0x4894, symBinAddr: 0x100009BE8, symSize: 0x20 }
  - { offsetInCU: 0x90AB, offset: 0x18403, size: 0x8, addend: 0x0, symName: __ZNSt3__128__exception_guard_exceptionsINS_6vectorI6SquareNS_9allocatorIS2_EEE16__destroy_vectorEED2B7v160006Ev, symObjAddr: 0x48B4, symBinAddr: 0x100009C08, symSize: 0x48 }
  - { offsetInCU: 0x90D3, offset: 0x1842B, size: 0x8, addend: 0x0, symName: __ZNSt3__16vectorINS0_I6SquareNS_9allocatorIS1_EEEENS2_IS4_EEEC2EmRKS4_, symObjAddr: 0x4CEC, symBinAddr: 0x100009C50, symSize: 0xF0 }
  - { offsetInCU: 0x9131, offset: 0x18489, size: 0x8, addend: 0x0, symName: __ZNSt3__117__compressed_pairIPNS_6vectorI6SquareNS_9allocatorIS2_EEEENS3_IS5_EEEC1B7v160006IDnNS_18__default_init_tagEEEOT_OT0_, symObjAddr: 0x4DDC, symBinAddr: 0x100009D40, symSize: 0x3C }
  - { offsetInCU: 0x9187, offset: 0x184DF, size: 0x8, addend: 0x0, symName: __ZNSt3__16vectorINS0_I6SquareNS_9allocatorIS1_EEEENS2_IS4_EEE11__vallocateB7v160006Em, symObjAddr: 0x4E9C, symBinAddr: 0x100009DCC, symSize: 0xB4 }
  - { offsetInCU: 0x91C9, offset: 0x18521, size: 0x8, addend: 0x0, symName: __ZNSt3__16vectorINS0_I6SquareNS_9allocatorIS1_EEEENS2_IS4_EEE18__construct_at_endEmRKS4_, symObjAddr: 0x4F50, symBinAddr: 0x100009E80, symSize: 0xD8 }
  - { offsetInCU: 0x924A, offset: 0x185A2, size: 0x8, addend: 0x0, symName: __ZNSt3__128__exception_guard_exceptionsINS_6vectorINS1_I6SquareNS_9allocatorIS2_EEEENS3_IS5_EEE16__destroy_vectorEE10__completeB7v160006Ev, symObjAddr: 0x5028, symBinAddr: 0x100009F58, symSize: 0x1C }
  - { offsetInCU: 0x926E, offset: 0x185C6, size: 0x8, addend: 0x0, symName: __ZNSt3__128__exception_guard_exceptionsINS_6vectorINS1_I6SquareNS_9allocatorIS2_EEEENS3_IS5_EEE16__destroy_vectorEED1B7v160006Ev, symObjAddr: 0x5044, symBinAddr: 0x100009F74, symSize: 0x2C }
  - { offsetInCU: 0x9296, offset: 0x185EE, size: 0x8, addend: 0x0, symName: __ZNSt3__117__compressed_pairIPNS_6vectorI6SquareNS_9allocatorIS2_EEEENS3_IS5_EEEC2B7v160006IDnNS_18__default_init_tagEEEOT_OT0_, symObjAddr: 0x5070, symBinAddr: 0x100009FA0, symSize: 0x40 }
  - { offsetInCU: 0x92ED, offset: 0x18645, size: 0x8, addend: 0x0, symName: __ZNSt3__122__compressed_pair_elemIPNS_6vectorI6SquareNS_9allocatorIS2_EEEELi0ELb0EEC2B7v160006IDnvEEOT_, symObjAddr: 0x50B0, symBinAddr: 0x100009FE0, symSize: 0x1C }
  - { offsetInCU: 0x932C, offset: 0x18684, size: 0x8, addend: 0x0, symName: __ZNSt3__122__compressed_pair_elemINS_9allocatorINS_6vectorI6SquareNS1_IS3_EEEEEELi1ELb1EEC2B7v160006ENS_18__default_init_tagE, symObjAddr: 0x50CC, symBinAddr: 0x100009FFC, symSize: 0x2C }
  - { offsetInCU: 0x935F, offset: 0x186B7, size: 0x8, addend: 0x0, symName: __ZNSt3__19allocatorINS_6vectorI6SquareNS0_IS2_EEEEEC2B7v160006Ev, symObjAddr: 0x50F8, symBinAddr: 0x10000A028, symSize: 0x2C }
  - { offsetInCU: 0x9388, offset: 0x186E0, size: 0x8, addend: 0x0, symName: __ZNSt3__116__non_trivial_ifILb1ENS_9allocatorINS_6vectorI6SquareNS1_IS3_EEEEEEEC2B7v160006Ev, symObjAddr: 0x5124, symBinAddr: 0x10000A054, symSize: 0x14 }
  - { offsetInCU: 0x93AF, offset: 0x18707, size: 0x8, addend: 0x0, symName: __ZNSt3__128__exception_guard_exceptionsINS_6vectorINS1_I6SquareNS_9allocatorIS2_EEEENS3_IS5_EEE16__destroy_vectorEEC1B7v160006ES8_, symObjAddr: 0x5138, symBinAddr: 0x10000A068, symSize: 0x34 }
  - { offsetInCU: 0x93E6, offset: 0x1873E, size: 0x8, addend: 0x0, symName: __ZNSt3__128__exception_guard_exceptionsINS_6vectorINS1_I6SquareNS_9allocatorIS2_EEEENS3_IS5_EEE16__destroy_vectorEEC2B7v160006ES8_, symObjAddr: 0x516C, symBinAddr: 0x10000A09C, symSize: 0x24 }
  - { offsetInCU: 0x941B, offset: 0x18773, size: 0x8, addend: 0x0, symName: __ZNKSt3__16vectorINS0_I6SquareNS_9allocatorIS1_EEEENS2_IS4_EEE8max_sizeEv, symObjAddr: 0x51B0, symBinAddr: 0x10000A0C0, symSize: 0x74 }
  - { offsetInCU: 0x9442, offset: 0x1879A, size: 0x8, addend: 0x0, symName: __ZNKSt3__16vectorINS0_I6SquareNS_9allocatorIS1_EEEENS2_IS4_EEE20__throw_length_errorB7v160006Ev, symObjAddr: 0x5224, symBinAddr: 0x10000A134, symSize: 0x1C }
  - { offsetInCU: 0x9466, offset: 0x187BE, size: 0x8, addend: 0x0, symName: __ZNSt3__16vectorINS0_I6SquareNS_9allocatorIS1_EEEENS2_IS4_EEE9__end_capB7v160006Ev, symObjAddr: 0x52A8, symBinAddr: 0x10000A190, symSize: 0x28 }
  - { offsetInCU: 0x948A, offset: 0x187E2, size: 0x8, addend: 0x0, symName: __ZNKSt3__16vectorINS0_I6SquareNS_9allocatorIS1_EEEENS2_IS4_EEE14__annotate_newB7v160006Em, symObjAddr: 0x52D0, symBinAddr: 0x10000A1B8, symSize: 0xC8 }
  - { offsetInCU: 0x94C8, offset: 0x18820, size: 0x8, addend: 0x0, symName: __ZNSt3__116allocator_traitsINS_9allocatorINS_6vectorI6SquareNS1_IS3_EEEEEEE8max_sizeB7v160006IS6_vEEmRKS6_, symObjAddr: 0x5398, symBinAddr: 0x10000A280, symSize: 0x24 }
  - { offsetInCU: 0x94F4, offset: 0x1884C, size: 0x8, addend: 0x0, symName: __ZNKSt3__16vectorINS0_I6SquareNS_9allocatorIS1_EEEENS2_IS4_EEE7__allocB7v160006Ev, symObjAddr: 0x53BC, symBinAddr: 0x10000A2A4, symSize: 0x28 }
  - { offsetInCU: 0x9518, offset: 0x18870, size: 0x8, addend: 0x0, symName: __ZNKSt3__19allocatorINS_6vectorI6SquareNS0_IS2_EEEEE8max_sizeB7v160006Ev, symObjAddr: 0x53E4, symBinAddr: 0x10000A2CC, symSize: 0x18 }
  - { offsetInCU: 0x953C, offset: 0x18894, size: 0x8, addend: 0x0, symName: __ZNKSt3__117__compressed_pairIPNS_6vectorI6SquareNS_9allocatorIS2_EEEENS3_IS5_EEE6secondB7v160006Ev, symObjAddr: 0x53FC, symBinAddr: 0x10000A2E4, symSize: 0x24 }
  - { offsetInCU: 0x9560, offset: 0x188B8, size: 0x8, addend: 0x0, symName: __ZNKSt3__122__compressed_pair_elemINS_9allocatorINS_6vectorI6SquareNS1_IS3_EEEEEELi1ELb1EE5__getB7v160006Ev, symObjAddr: 0x5420, symBinAddr: 0x10000A308, symSize: 0x14 }
  - { offsetInCU: 0x9584, offset: 0x188DC, size: 0x8, addend: 0x0, symName: __ZNSt3__19allocatorINS_6vectorI6SquareNS0_IS2_EEEEE8allocateB7v160006Em, symObjAddr: 0x5434, symBinAddr: 0x10000A31C, symSize: 0x8C }
  - { offsetInCU: 0x95B6, offset: 0x1890E, size: 0x8, addend: 0x0, symName: __ZNSt3__117__compressed_pairIPNS_6vectorI6SquareNS_9allocatorIS2_EEEENS3_IS5_EEE5firstB7v160006Ev, symObjAddr: 0x54F8, symBinAddr: 0x10000A3A8, symSize: 0x24 }
  - { offsetInCU: 0x95DA, offset: 0x18932, size: 0x8, addend: 0x0, symName: __ZNSt3__122__compressed_pair_elemIPNS_6vectorI6SquareNS_9allocatorIS2_EEEELi0ELb0EE5__getB7v160006Ev, symObjAddr: 0x551C, symBinAddr: 0x10000A3CC, symSize: 0x14 }
  - { offsetInCU: 0x9617, offset: 0x1896F, size: 0x8, addend: 0x0, symName: __ZNSt3__16vectorINS0_I6SquareNS_9allocatorIS1_EEEENS2_IS4_EEE21_ConstructTransactionC1B7v160006ERS6_m, symObjAddr: 0x562C, symBinAddr: 0x10000A3E0, symSize: 0x3C }
  - { offsetInCU: 0x965E, offset: 0x189B6, size: 0x8, addend: 0x0, symName: __ZNSt3__116allocator_traitsINS_9allocatorINS_6vectorI6SquareNS1_IS3_EEEEEEE9constructB7v160006IS5_JRKS5_EvEEvRS6_PT_DpOT0_, symObjAddr: 0x5668, symBinAddr: 0x10000A41C, symSize: 0x34 }
  - { offsetInCU: 0x96B3, offset: 0x18A0B, size: 0x8, addend: 0x0, symName: __ZNSt3__16vectorINS0_I6SquareNS_9allocatorIS1_EEEENS2_IS4_EEE21_ConstructTransactionD1B7v160006Ev, symObjAddr: 0x569C, symBinAddr: 0x10000A450, symSize: 0x2C }
  - { offsetInCU: 0x96DC, offset: 0x18A34, size: 0x8, addend: 0x0, symName: __ZNSt3__16vectorINS0_I6SquareNS_9allocatorIS1_EEEENS2_IS4_EEE21_ConstructTransactionC2B7v160006ERS6_m, symObjAddr: 0x56C8, symBinAddr: 0x10000A47C, symSize: 0x4C }
  - { offsetInCU: 0x9721, offset: 0x18A79, size: 0x8, addend: 0x0, symName: __ZNSt3__19allocatorINS_6vectorI6SquareNS0_IS2_EEEEE9constructB7v160006IS4_JRKS4_EEEvPT_DpOT0_, symObjAddr: 0x5714, symBinAddr: 0x10000A4C8, symSize: 0x30 }
  - { offsetInCU: 0x9775, offset: 0x18ACD, size: 0x8, addend: 0x0, symName: __ZNSt3__16vectorI6SquareNS_9allocatorIS1_EEEC1ERKS4_, symObjAddr: 0x5744, symBinAddr: 0x10000A4F8, symSize: 0x34 }
  - { offsetInCU: 0x97AF, offset: 0x18B07, size: 0x8, addend: 0x0, symName: __ZNSt3__16vectorI6SquareNS_9allocatorIS1_EEEC2ERKS4_, symObjAddr: 0x5778, symBinAddr: 0x10000A52C, symSize: 0x118 }
  - { offsetInCU: 0x980E, offset: 0x18B66, size: 0x8, addend: 0x0, symName: __ZNSt3__116allocator_traitsINS_9allocatorI6SquareEEE37select_on_container_copy_constructionB7v160006IS3_vvEES3_RKS3_, symObjAddr: 0x5890, symBinAddr: 0x10000A644, symSize: 0x10 }
  - { offsetInCU: 0x9841, offset: 0x18B99, size: 0x8, addend: 0x0, symName: __ZNSt3__117__compressed_pairIP6SquareNS_9allocatorIS1_EEEC1B7v160006IDnS4_EEOT_OT0_, symObjAddr: 0x58A0, symBinAddr: 0x10000A654, symSize: 0x3C }
  - { offsetInCU: 0x9897, offset: 0x18BEF, size: 0x8, addend: 0x0, symName: __ZNSt3__16vectorI6SquareNS_9allocatorIS1_EEE18__construct_at_endIPS1_Li0EEEvT_S7_m, symObjAddr: 0x58DC, symBinAddr: 0x10000A690, symSize: 0x94 }
  - { offsetInCU: 0x990A, offset: 0x18C62, size: 0x8, addend: 0x0, symName: __ZNSt3__117__compressed_pairIP6SquareNS_9allocatorIS1_EEEC2B7v160006IDnS4_EEOT_OT0_, symObjAddr: 0x5970, symBinAddr: 0x10000A724, symSize: 0x44 }
  - { offsetInCU: 0x9961, offset: 0x18CB9, size: 0x8, addend: 0x0, symName: __ZNSt3__122__compressed_pair_elemINS_9allocatorI6SquareEELi1ELb1EEC2B7v160006IS3_vEEOT_, symObjAddr: 0x59B4, symBinAddr: 0x10000A768, symSize: 0x18 }
  - { offsetInCU: 0x99A0, offset: 0x18CF8, size: 0x8, addend: 0x0, symName: __ZNSt3__129_AllocatorDestroyRangeReverseINS_9allocatorI6SquareEEPS2_EC1B7v160006ERS3_RS4_S7_, symObjAddr: 0x5B14, symBinAddr: 0x10000A8C8, symSize: 0x44 }
  - { offsetInCU: 0x99F6, offset: 0x18D4E, size: 0x8, addend: 0x0, symName: __ZNSt3__116allocator_traitsINS_9allocatorI6SquareEEE9constructB7v160006IS2_JRS2_EvEEvRS3_PT_DpOT0_, symObjAddr: 0x5B58, symBinAddr: 0x10000A90C, symSize: 0x34 }
  - { offsetInCU: 0x9A4B, offset: 0x18DA3, size: 0x8, addend: 0x0, symName: __ZNSt3__128__exception_guard_exceptionsINS_29_AllocatorDestroyRangeReverseINS_9allocatorI6SquareEEPS3_EEE10__completeB7v160006Ev, symObjAddr: 0x5B8C, symBinAddr: 0x10000A940, symSize: 0x1C }
  - { offsetInCU: 0x9A6F, offset: 0x18DC7, size: 0x8, addend: 0x0, symName: __ZNSt3__128__exception_guard_exceptionsINS_29_AllocatorDestroyRangeReverseINS_9allocatorI6SquareEEPS3_EEED1B7v160006Ev, symObjAddr: 0x5BA8, symBinAddr: 0x10000A95C, symSize: 0x2C }
  - { offsetInCU: 0x9A97, offset: 0x18DEF, size: 0x8, addend: 0x0, symName: __ZNSt3__128__exception_guard_exceptionsINS_29_AllocatorDestroyRangeReverseINS_9allocatorI6SquareEEPS3_EEEC1B7v160006ES6_, symObjAddr: 0x5BD4, symBinAddr: 0x10000A988, symSize: 0x34 }
  - { offsetInCU: 0x9ACF, offset: 0x18E27, size: 0x8, addend: 0x0, symName: __ZNSt3__128__exception_guard_exceptionsINS_29_AllocatorDestroyRangeReverseINS_9allocatorI6SquareEEPS3_EEEC2B7v160006ES6_, symObjAddr: 0x5C08, symBinAddr: 0x10000A9BC, symSize: 0x30 }
  - { offsetInCU: 0x9B06, offset: 0x18E5E, size: 0x8, addend: 0x0, symName: __ZNSt3__129_AllocatorDestroyRangeReverseINS_9allocatorI6SquareEEPS2_EC2B7v160006ERS3_RS4_S7_, symObjAddr: 0x5C38, symBinAddr: 0x10000A9EC, symSize: 0x38 }
  - { offsetInCU: 0x9B5A, offset: 0x18EB2, size: 0x8, addend: 0x0, symName: __ZNSt3__19allocatorI6SquareE9constructB7v160006IS1_JRS1_EEEvPT_DpOT0_, symObjAddr: 0x5C70, symBinAddr: 0x10000AA24, symSize: 0x28 }
  - { offsetInCU: 0x9BAE, offset: 0x18F06, size: 0x8, addend: 0x0, symName: __ZNSt3__128__exception_guard_exceptionsINS_29_AllocatorDestroyRangeReverseINS_9allocatorI6SquareEEPS3_EEED2B7v160006Ev, symObjAddr: 0x5C98, symBinAddr: 0x10000AA4C, symSize: 0x48 }
  - { offsetInCU: 0x9BD6, offset: 0x18F2E, size: 0x8, addend: 0x0, symName: __ZNKSt3__129_AllocatorDestroyRangeReverseINS_9allocatorI6SquareEEPS2_EclB7v160006Ev, symObjAddr: 0x5CE0, symBinAddr: 0x10000AA94, symSize: 0x68 }
  - { offsetInCU: 0x9BFA, offset: 0x18F52, size: 0x8, addend: 0x0, symName: __ZNSt3__116reverse_iteratorIP6SquareEC1B7v160006ES2_, symObjAddr: 0x5DB8, symBinAddr: 0x10000AB6C, symSize: 0x34 }
  - { offsetInCU: 0x9C30, offset: 0x18F88, size: 0x8, addend: 0x0, symName: __ZNSt3__116reverse_iteratorIP6SquareEppB7v160006Ev, symObjAddr: 0x5E58, symBinAddr: 0x10000AC0C, symSize: 0x20 }
  - { offsetInCU: 0x9C54, offset: 0x18FAC, size: 0x8, addend: 0x0, symName: __ZNKSt3__116reverse_iteratorIP6SquareE4baseB7v160006Ev, symObjAddr: 0x5E78, symBinAddr: 0x10000AC2C, symSize: 0x18 }
  - { offsetInCU: 0x9C7E, offset: 0x18FD6, size: 0x8, addend: 0x0, symName: __ZNSt3__119__to_address_helperINS_16reverse_iteratorIP6SquareEEvE6__callB7v160006ERKS4_, symObjAddr: 0x5E90, symBinAddr: 0x10000AC44, symSize: 0x4C }
  - { offsetInCU: 0x9C9F, offset: 0x18FF7, size: 0x8, addend: 0x0, symName: __ZNKSt3__116reverse_iteratorIP6SquareEptB7v160006Ev, symObjAddr: 0x5EDC, symBinAddr: 0x10000AC90, symSize: 0x24 }
  - { offsetInCU: 0x9CC3, offset: 0x1901B, size: 0x8, addend: 0x0, symName: __ZNKSt3__116reverse_iteratorIP6SquareEdeB7v160006Ev, symObjAddr: 0x5F00, symBinAddr: 0x10000ACB4, symSize: 0x28 }
  - { offsetInCU: 0x9CF6, offset: 0x1904E, size: 0x8, addend: 0x0, symName: __ZNSt3__116reverse_iteratorIP6SquareEC2B7v160006ES2_, symObjAddr: 0x5F28, symBinAddr: 0x10000ACDC, symSize: 0x28 }
  - { offsetInCU: 0x9D2C, offset: 0x19084, size: 0x8, addend: 0x0, symName: __ZNSt3__16vectorINS0_I6SquareNS_9allocatorIS1_EEEENS2_IS4_EEE21_ConstructTransactionD2B7v160006Ev, symObjAddr: 0x5F50, symBinAddr: 0x10000AD04, symSize: 0x20 }
  - { offsetInCU: 0x9D53, offset: 0x190AB, size: 0x8, addend: 0x0, symName: __ZNSt3__128__exception_guard_exceptionsINS_6vectorINS1_I6SquareNS_9allocatorIS2_EEEENS3_IS5_EEE16__destroy_vectorEED2B7v160006Ev, symObjAddr: 0x5F70, symBinAddr: 0x10000AD24, symSize: 0x48 }
  - { offsetInCU: 0x9D7B, offset: 0x190D3, size: 0x8, addend: 0x0, symName: __ZNSt3__112basic_stringIcNS_11char_traitsIcEENS_9allocatorIcEEEC2B7v160006IDnEEPKc, symObjAddr: 0x6360, symBinAddr: 0x10000AD6C, symSize: 0x60 }
  - { offsetInCU: 0x9DB7, offset: 0x1910F, size: 0x8, addend: 0x0, symName: __ZNKSt3__112basic_stringIcNS_11char_traitsIcEENS_9allocatorIcEEE4sizeB7v160006Ev, symObjAddr: 0x6534, symBinAddr: 0x10000ADCC, symSize: 0x54 }
  - { offsetInCU: 0x9DDC, offset: 0x19134, size: 0x8, addend: 0x0, symName: __ZNSt3__111char_traitsIcE7compareEPKcS3_m, symObjAddr: 0x6624, symBinAddr: 0x10000AE20, symSize: 0x80 }
  - { offsetInCU: 0x9E19, offset: 0x19171, size: 0x8, addend: 0x0, symName: __ZNKSt3__112basic_stringIcNS_11char_traitsIcEENS_9allocatorIcEEE15__get_long_sizeB7v160006Ev, symObjAddr: 0x66A4, symBinAddr: 0x10000AEA0, symSize: 0x28 }
  - { offsetInCU: 0x9E3D, offset: 0x19195, size: 0x8, addend: 0x0, symName: __ZNKSt3__112basic_stringIcNS_11char_traitsIcEENS_9allocatorIcEEE16__get_short_sizeB7v160006Ev, symObjAddr: 0x66CC, symBinAddr: 0x10000AEC8, symSize: 0x34 }
  - { offsetInCU: 0x9E61, offset: 0x191B9, size: 0x8, addend: 0x0, symName: __ZNSt3__16vectorINS0_I6SquareNS_9allocatorIS1_EEEENS2_IS4_EEEC2ERKS6_, symObjAddr: 0x6C54, symBinAddr: 0x10000AF30, symSize: 0x118 }
  - { offsetInCU: 0x9EC0, offset: 0x19218, size: 0x8, addend: 0x0, symName: __ZNSt3__116allocator_traitsINS_9allocatorINS_6vectorI6SquareNS1_IS3_EEEEEEE37select_on_container_copy_constructionB7v160006IS6_vvEES6_RKS6_, symObjAddr: 0x6D6C, symBinAddr: 0x10000B048, symSize: 0x10 }
  - { offsetInCU: 0x9EF3, offset: 0x1924B, size: 0x8, addend: 0x0, symName: __ZNSt3__117__compressed_pairIPNS_6vectorI6SquareNS_9allocatorIS2_EEEENS3_IS5_EEEC1B7v160006IDnS7_EEOT_OT0_, symObjAddr: 0x6D7C, symBinAddr: 0x10000B058, symSize: 0x3C }
  - { offsetInCU: 0x9F49, offset: 0x192A1, size: 0x8, addend: 0x0, symName: __ZNSt3__16vectorINS0_I6SquareNS_9allocatorIS1_EEEENS2_IS4_EEE18__construct_at_endIPS4_Li0EEEvT_S9_m, symObjAddr: 0x6DB8, symBinAddr: 0x10000B094, symSize: 0x94 }
  - { offsetInCU: 0x9FBC, offset: 0x19314, size: 0x8, addend: 0x0, symName: __ZNSt3__117__compressed_pairIPNS_6vectorI6SquareNS_9allocatorIS2_EEEENS3_IS5_EEEC2B7v160006IDnS7_EEOT_OT0_, symObjAddr: 0x6E4C, symBinAddr: 0x10000B128, symSize: 0x44 }
  - { offsetInCU: 0xA013, offset: 0x1936B, size: 0x8, addend: 0x0, symName: __ZNSt3__122__compressed_pair_elemINS_9allocatorINS_6vectorI6SquareNS1_IS3_EEEEEELi1ELb1EEC2B7v160006IS6_vEEOT_, symObjAddr: 0x6E90, symBinAddr: 0x10000B16C, symSize: 0x18 }
  - { offsetInCU: 0xA052, offset: 0x193AA, size: 0x8, addend: 0x0, symName: __ZNSt3__129_AllocatorDestroyRangeReverseINS_9allocatorINS_6vectorI6SquareNS1_IS3_EEEEEEPS5_EC1B7v160006ERS6_RS7_SA_, symObjAddr: 0x6FF0, symBinAddr: 0x10000B2CC, symSize: 0x44 }
  - { offsetInCU: 0xA0A8, offset: 0x19400, size: 0x8, addend: 0x0, symName: __ZNSt3__116allocator_traitsINS_9allocatorINS_6vectorI6SquareNS1_IS3_EEEEEEE9constructB7v160006IS5_JRS5_EvEEvRS6_PT_DpOT0_, symObjAddr: 0x7034, symBinAddr: 0x10000B310, symSize: 0x34 }
  - { offsetInCU: 0xA0FD, offset: 0x19455, size: 0x8, addend: 0x0, symName: __ZNSt3__128__exception_guard_exceptionsINS_29_AllocatorDestroyRangeReverseINS_9allocatorINS_6vectorI6SquareNS2_IS4_EEEEEEPS6_EEE10__completeB7v160006Ev, symObjAddr: 0x7068, symBinAddr: 0x10000B344, symSize: 0x1C }
  - { offsetInCU: 0xA121, offset: 0x19479, size: 0x8, addend: 0x0, symName: __ZNSt3__128__exception_guard_exceptionsINS_29_AllocatorDestroyRangeReverseINS_9allocatorINS_6vectorI6SquareNS2_IS4_EEEEEEPS6_EEED1B7v160006Ev, symObjAddr: 0x7084, symBinAddr: 0x10000B360, symSize: 0x2C }
  - { offsetInCU: 0xA149, offset: 0x194A1, size: 0x8, addend: 0x0, symName: __ZNSt3__128__exception_guard_exceptionsINS_29_AllocatorDestroyRangeReverseINS_9allocatorINS_6vectorI6SquareNS2_IS4_EEEEEEPS6_EEEC1B7v160006ES9_, symObjAddr: 0x70B0, symBinAddr: 0x10000B38C, symSize: 0x34 }
  - { offsetInCU: 0xA181, offset: 0x194D9, size: 0x8, addend: 0x0, symName: __ZNSt3__128__exception_guard_exceptionsINS_29_AllocatorDestroyRangeReverseINS_9allocatorINS_6vectorI6SquareNS2_IS4_EEEEEEPS6_EEEC2B7v160006ES9_, symObjAddr: 0x70E4, symBinAddr: 0x10000B3C0, symSize: 0x30 }
  - { offsetInCU: 0xA1B8, offset: 0x19510, size: 0x8, addend: 0x0, symName: __ZNSt3__129_AllocatorDestroyRangeReverseINS_9allocatorINS_6vectorI6SquareNS1_IS3_EEEEEEPS5_EC2B7v160006ERS6_RS7_SA_, symObjAddr: 0x7114, symBinAddr: 0x10000B3F0, symSize: 0x38 }
  - { offsetInCU: 0xA20C, offset: 0x19564, size: 0x8, addend: 0x0, symName: __ZNSt3__19allocatorINS_6vectorI6SquareNS0_IS2_EEEEE9constructB7v160006IS4_JRS4_EEEvPT_DpOT0_, symObjAddr: 0x714C, symBinAddr: 0x10000B428, symSize: 0x30 }
  - { offsetInCU: 0xA260, offset: 0x195B8, size: 0x8, addend: 0x0, symName: __ZNSt3__128__exception_guard_exceptionsINS_29_AllocatorDestroyRangeReverseINS_9allocatorINS_6vectorI6SquareNS2_IS4_EEEEEEPS6_EEED2B7v160006Ev, symObjAddr: 0x717C, symBinAddr: 0x10000B458, symSize: 0x48 }
  - { offsetInCU: 0xA288, offset: 0x195E0, size: 0x8, addend: 0x0, symName: __ZNKSt3__129_AllocatorDestroyRangeReverseINS_9allocatorINS_6vectorI6SquareNS1_IS3_EEEEEEPS5_EclB7v160006Ev, symObjAddr: 0x71C4, symBinAddr: 0x10000B4A0, symSize: 0x68 }
  - { offsetInCU: 0xA2AC, offset: 0x19604, size: 0x8, addend: 0x0, symName: __ZNSt3__116reverse_iteratorIPNS_6vectorI6SquareNS_9allocatorIS2_EEEEEC1B7v160006ES6_, symObjAddr: 0x729C, symBinAddr: 0x10000B578, symSize: 0x34 }
  - { offsetInCU: 0xA2E2, offset: 0x1963A, size: 0x8, addend: 0x0, symName: __ZNSt3__116reverse_iteratorIPNS_6vectorI6SquareNS_9allocatorIS2_EEEEEppB7v160006Ev, symObjAddr: 0x733C, symBinAddr: 0x10000B618, symSize: 0x20 }
  - { offsetInCU: 0xA306, offset: 0x1965E, size: 0x8, addend: 0x0, symName: __ZNKSt3__116reverse_iteratorIPNS_6vectorI6SquareNS_9allocatorIS2_EEEEE4baseB7v160006Ev, symObjAddr: 0x735C, symBinAddr: 0x10000B638, symSize: 0x18 }
  - { offsetInCU: 0xA330, offset: 0x19688, size: 0x8, addend: 0x0, symName: __ZNSt3__119__to_address_helperINS_16reverse_iteratorIPNS_6vectorI6SquareNS_9allocatorIS3_EEEEEEvE6__callB7v160006ERKS8_, symObjAddr: 0x7374, symBinAddr: 0x10000B650, symSize: 0x4C }
  - { offsetInCU: 0xA351, offset: 0x196A9, size: 0x8, addend: 0x0, symName: __ZNKSt3__116reverse_iteratorIPNS_6vectorI6SquareNS_9allocatorIS2_EEEEEptB7v160006Ev, symObjAddr: 0x73C0, symBinAddr: 0x10000B69C, symSize: 0x24 }
  - { offsetInCU: 0xA375, offset: 0x196CD, size: 0x8, addend: 0x0, symName: __ZNKSt3__116reverse_iteratorIPNS_6vectorI6SquareNS_9allocatorIS2_EEEEEdeB7v160006Ev, symObjAddr: 0x73E4, symBinAddr: 0x10000B6C0, symSize: 0x28 }
  - { offsetInCU: 0xA3A8, offset: 0x19700, size: 0x8, addend: 0x0, symName: __ZNSt3__116reverse_iteratorIPNS_6vectorI6SquareNS_9allocatorIS2_EEEEEC2B7v160006ES6_, symObjAddr: 0x740C, symBinAddr: 0x10000B6E8, symSize: 0x28 }
  - { offsetInCU: 0x26, offset: 0x19802, size: 0x8, addend: 0x0, symName: __ZN6SquareC2Ev, symObjAddr: 0x0, symBinAddr: 0x10000B710, symSize: 0x20 }
  - { offsetInCU: 0x477E, offset: 0x1DF5A, size: 0x8, addend: 0x0, symName: __ZN6SquareC2Ev, symObjAddr: 0x0, symBinAddr: 0x10000B710, symSize: 0x20 }
  - { offsetInCU: 0x47A9, offset: 0x1DF85, size: 0x8, addend: 0x0, symName: __ZN6SquareC1Ev, symObjAddr: 0x20, symBinAddr: 0x10000B730, symSize: 0x2C }
  - { offsetInCU: 0x47D4, offset: 0x1DFB0, size: 0x8, addend: 0x0, symName: __ZN6Square8setPieceER5Piece, symObjAddr: 0x4C, symBinAddr: 0x10000B75C, symSize: 0x24 }
  - { offsetInCU: 0x4809, offset: 0x1DFE5, size: 0x8, addend: 0x0, symName: __ZN6Square8getPieceEv, symObjAddr: 0x70, symBinAddr: 0x10000B780, symSize: 0x18 }
  - { offsetInCU: 0x4830, offset: 0x1E00C, size: 0x8, addend: 0x0, symName: __ZN6Square7isEmptyEv, symObjAddr: 0x88, symBinAddr: 0x10000B798, symSize: 0x1C }
  - { offsetInCU: 0x4857, offset: 0x1E033, size: 0x8, addend: 0x0, symName: __ZN6Square8setEmptyEv, symObjAddr: 0xA4, symBinAddr: 0x10000B7B4, symSize: 0x1C }
  - { offsetInCU: 0x487E, offset: 0x1E05A, size: 0x8, addend: 0x0, symName: __ZN6Square12getPieceTypeEv, symObjAddr: 0xC0, symBinAddr: 0x10000B7D0, symSize: 0x68 }
  - { offsetInCU: 0x48AA, offset: 0x1E086, size: 0x8, addend: 0x0, symName: __ZN6Square11removePieceEv, symObjAddr: 0x15C, symBinAddr: 0x10000B838, symSize: 0x18 }
  - { offsetInCU: 0x653A, offset: 0x245EC, size: 0x8, addend: 0x0, symName: __ZN6BishopC2EbNSt3__112basic_stringIcNS0_11char_traitsIcEENS0_9allocatorIcEEEEii, symObjAddr: 0x0, symBinAddr: 0x10000B850, symSize: 0xD0 }
  - { offsetInCU: 0x659E, offset: 0x24650, size: 0x8, addend: 0x0, symName: __ZN6BishopC1EbNSt3__112basic_stringIcNS0_11char_traitsIcEENS0_9allocatorIcEEEEii, symObjAddr: 0xDC, symBinAddr: 0x10000B920, symSize: 0x58 }
  - { offsetInCU: 0x6602, offset: 0x246B4, size: 0x8, addend: 0x0, symName: __ZN6Bishop11isMoveValidEiiR5Board, symObjAddr: 0x134, symBinAddr: 0x10000B978, symSize: 0x488 }
  - { offsetInCU: 0x66E4, offset: 0x24796, size: 0x8, addend: 0x0, symName: __ZN5BoardC1ERKS_, symObjAddr: 0x638, symBinAddr: 0x10000BE00, symSize: 0x34 }
  - { offsetInCU: 0x6722, offset: 0x247D4, size: 0x8, addend: 0x0, symName: __ZN6BishopC1ERKS_, symObjAddr: 0x66C, symBinAddr: 0x10000BE34, symSize: 0x34 }
  - { offsetInCU: 0x6756, offset: 0x24808, size: 0x8, addend: 0x0, symName: __ZN6BishopD1Ev, symObjAddr: 0x6A0, symBinAddr: 0x10000BE68, symSize: 0x2C }
  - { offsetInCU: 0x6781, offset: 0x24833, size: 0x8, addend: 0x0, symName: __ZN5BoardD1Ev, symObjAddr: 0x6CC, symBinAddr: 0x10000BE94, symSize: 0x2C }
  - { offsetInCU: 0x67AC, offset: 0x2485E, size: 0x8, addend: 0x0, symName: __ZN5BoardC2ERKS_, symObjAddr: 0x6F8, symBinAddr: 0x10000BEC0, symSize: 0x48 }
  - { offsetInCU: 0x6826, offset: 0x248D8, size: 0x8, addend: 0x0, symName: __ZN6BishopC2ERKS_, symObjAddr: 0x3050, symBinAddr: 0x10000BF08, symSize: 0x58 }
  - { offsetInCU: 0x6864, offset: 0x24916, size: 0x8, addend: 0x0, symName: __ZN5PieceC2ERKS_, symObjAddr: 0x30A8, symBinAddr: 0x10000BF60, symSize: 0x68 }
  - { offsetInCU: 0x6898, offset: 0x2494A, size: 0x8, addend: 0x0, symName: __ZN6BishopD2Ev, symObjAddr: 0x3110, symBinAddr: 0x10000BFC8, symSize: 0x2C }
  - { offsetInCU: 0x68C3, offset: 0x24975, size: 0x8, addend: 0x0, symName: __ZN5BoardD2Ev, symObjAddr: 0x313C, symBinAddr: 0x10000BFF4, symSize: 0x2C }
  - { offsetInCU: 0x474E, offset: 0x290F8, size: 0x8, addend: 0x0, symName: __ZN6KnightC2EbNSt3__112basic_stringIcNS0_11char_traitsIcEENS0_9allocatorIcEEEEii, symObjAddr: 0x0, symBinAddr: 0x10000C020, symSize: 0xD0 }
  - { offsetInCU: 0x47B2, offset: 0x2915C, size: 0x8, addend: 0x0, symName: __ZN6KnightC1EbNSt3__112basic_stringIcNS0_11char_traitsIcEENS0_9allocatorIcEEEEii, symObjAddr: 0xDC, symBinAddr: 0x10000C0F0, symSize: 0x58 }
  - { offsetInCU: 0x4816, offset: 0x291C0, size: 0x8, addend: 0x0, symName: __ZN6Knight11isMoveValidEiiR5Board, symObjAddr: 0x134, symBinAddr: 0x10000C148, symSize: 0x378 }
  - { offsetInCU: 0x48AD, offset: 0x29257, size: 0x8, addend: 0x0, symName: __ZN6KnightC1ERKS_, symObjAddr: 0x55C, symBinAddr: 0x10000C4C0, symSize: 0x34 }
  - { offsetInCU: 0x48E1, offset: 0x2928B, size: 0x8, addend: 0x0, symName: __ZN6KnightD1Ev, symObjAddr: 0x590, symBinAddr: 0x10000C4F4, symSize: 0x2C }
  - { offsetInCU: 0x490C, offset: 0x292B6, size: 0x8, addend: 0x0, symName: __ZN6KnightC2ERKS_, symObjAddr: 0x2F40, symBinAddr: 0x10000C520, symSize: 0x58 }
  - { offsetInCU: 0x494A, offset: 0x292F4, size: 0x8, addend: 0x0, symName: __ZN6KnightD2Ev, symObjAddr: 0x3000, symBinAddr: 0x10000C578, symSize: 0x2C }
  - { offsetInCU: 0x4761, offset: 0x2DA85, size: 0x8, addend: 0x0, symName: __ZN4RookC2EbNSt3__112basic_stringIcNS0_11char_traitsIcEENS0_9allocatorIcEEEEii, symObjAddr: 0x0, symBinAddr: 0x10000C5A4, symSize: 0xD4 }
  - { offsetInCU: 0x47C5, offset: 0x2DAE9, size: 0x8, addend: 0x0, symName: __ZN4RookC1EbNSt3__112basic_stringIcNS0_11char_traitsIcEENS0_9allocatorIcEEEEii, symObjAddr: 0xE0, symBinAddr: 0x10000C678, symSize: 0x58 }
  - { offsetInCU: 0x4829, offset: 0x2DB4D, size: 0x8, addend: 0x0, symName: __ZN4Rook11isMoveValidEiiR5Board, symObjAddr: 0x138, symBinAddr: 0x10000C6D0, symSize: 0x4E4 }
  - { offsetInCU: 0x48ED, offset: 0x2DC11, size: 0x8, addend: 0x0, symName: __ZN4RookC1ERKS_, symObjAddr: 0x6CC, symBinAddr: 0x10000CBB4, symSize: 0x34 }
  - { offsetInCU: 0x4921, offset: 0x2DC45, size: 0x8, addend: 0x0, symName: __ZN4RookD1Ev, symObjAddr: 0x700, symBinAddr: 0x10000CBE8, symSize: 0x2C }
  - { offsetInCU: 0x494C, offset: 0x2DC70, size: 0x8, addend: 0x0, symName: __ZN4RookC2ERKS_, symObjAddr: 0x30B0, symBinAddr: 0x10000CC14, symSize: 0x58 }
  - { offsetInCU: 0x498A, offset: 0x2DCAE, size: 0x8, addend: 0x0, symName: __ZN4RookD2Ev, symObjAddr: 0x3170, symBinAddr: 0x10000CC6C, symSize: 0x2C }
  - { offsetInCU: 0x474E, offset: 0x3242C, size: 0x8, addend: 0x0, symName: __ZN5QueenC2EbNSt3__112basic_stringIcNS0_11char_traitsIcEENS0_9allocatorIcEEEEii, symObjAddr: 0x0, symBinAddr: 0x10000CC98, symSize: 0xD0 }
  - { offsetInCU: 0x47B2, offset: 0x32490, size: 0x8, addend: 0x0, symName: __ZN5QueenC1EbNSt3__112basic_stringIcNS0_11char_traitsIcEENS0_9allocatorIcEEEEii, symObjAddr: 0xDC, symBinAddr: 0x10000CD68, symSize: 0x58 }
  - { offsetInCU: 0x4816, offset: 0x324F4, size: 0x8, addend: 0x0, symName: __ZN5Queen11isMoveValidEiiR5Board, symObjAddr: 0x134, symBinAddr: 0x10000CDC0, symSize: 0x6A4 }
  - { offsetInCU: 0x497F, offset: 0x3265D, size: 0x8, addend: 0x0, symName: __ZN5QueenC1ERKS_, symObjAddr: 0x888, symBinAddr: 0x10000D464, symSize: 0x34 }
  - { offsetInCU: 0x49B3, offset: 0x32691, size: 0x8, addend: 0x0, symName: __ZN5QueenD1Ev, symObjAddr: 0x8BC, symBinAddr: 0x10000D498, symSize: 0x2C }
  - { offsetInCU: 0x49DE, offset: 0x326BC, size: 0x8, addend: 0x0, symName: __ZN5QueenC2ERKS_, symObjAddr: 0x326C, symBinAddr: 0x10000D4C4, symSize: 0x58 }
  - { offsetInCU: 0x4A1C, offset: 0x326FA, size: 0x8, addend: 0x0, symName: __ZN5QueenD2Ev, symObjAddr: 0x332C, symBinAddr: 0x10000D51C, symSize: 0x2C }
  - { offsetInCU: 0x4755, offset: 0x36E7F, size: 0x8, addend: 0x0, symName: __ZN4KingC2EbNSt3__112basic_stringIcNS0_11char_traitsIcEENS0_9allocatorIcEEEEii, symObjAddr: 0x0, symBinAddr: 0x10000D548, symSize: 0xD0 }
  - { offsetInCU: 0x47B9, offset: 0x36EE3, size: 0x8, addend: 0x0, symName: __ZN4KingC1EbNSt3__112basic_stringIcNS0_11char_traitsIcEENS0_9allocatorIcEEEEii, symObjAddr: 0xDC, symBinAddr: 0x10000D618, symSize: 0x58 }
  - { offsetInCU: 0x481D, offset: 0x36F47, size: 0x8, addend: 0x0, symName: __ZN4King11isMoveValidEiiR5Board, symObjAddr: 0x134, symBinAddr: 0x10000D670, symSize: 0x31C }
  - { offsetInCU: 0x48B4, offset: 0x36FDE, size: 0x8, addend: 0x0, symName: __ZN4KingC1ERKS_, symObjAddr: 0x500, symBinAddr: 0x10000D98C, symSize: 0x34 }
  - { offsetInCU: 0x48E8, offset: 0x37012, size: 0x8, addend: 0x0, symName: __ZN4KingD1Ev, symObjAddr: 0x534, symBinAddr: 0x10000D9C0, symSize: 0x2C }
  - { offsetInCU: 0x4913, offset: 0x3703D, size: 0x8, addend: 0x0, symName: __ZN4KingC2ERKS_, symObjAddr: 0x2EE4, symBinAddr: 0x10000D9EC, symSize: 0x58 }
  - { offsetInCU: 0x4951, offset: 0x3707B, size: 0x8, addend: 0x0, symName: __ZN4KingD2Ev, symObjAddr: 0x2FA4, symBinAddr: 0x10000DA44, symSize: 0x2C }
  - { offsetInCU: 0x473F, offset: 0x3B7EA, size: 0x8, addend: 0x0, symName: __ZN4PawnC2EbNSt3__112basic_stringIcNS0_11char_traitsIcEENS0_9allocatorIcEEEEii, symObjAddr: 0x0, symBinAddr: 0x10000DA70, symSize: 0xD8 }
  - { offsetInCU: 0x47A3, offset: 0x3B84E, size: 0x8, addend: 0x0, symName: __ZN4PawnC1EbNSt3__112basic_stringIcNS0_11char_traitsIcEENS0_9allocatorIcEEEEii, symObjAddr: 0xE4, symBinAddr: 0x10000DB48, symSize: 0x58 }
  - { offsetInCU: 0x4807, offset: 0x3B8B2, size: 0x8, addend: 0x0, symName: __ZN4Pawn11isFirstMoveEv, symObjAddr: 0x13C, symBinAddr: 0x10000DBA0, symSize: 0x1C }
  - { offsetInCU: 0x482E, offset: 0x3B8D9, size: 0x8, addend: 0x0, symName: __ZN4Pawn11isMoveValidEiiR5Board, symObjAddr: 0x158, symBinAddr: 0x10000DBBC, symSize: 0x7B8 }
...
